(lp0
S'https://www.appannie.com/apps/google-play/app/com.uc.iflow/keywords'
p1
aS'https://www.appannie.com/apps/google-play/app/com.live.ery.tvonlineindonesia/keywords'
p2
aS'https://www.appannie.com/apps/google-play/app/id.co.babe/keywords'
p3
aS'https://www.appannie.com/apps/google-play/app/com.jakarta.baca/keywords'
p4
aS'https://www.appannie.com/apps/google-play/app/com.twitter.android/keywords'
p5
aS'https://www.appannie.com/apps/google-play/app/com.merahputih.kurio/keywords'
p6
aS'https://www.appannie.com/apps/google-play/app/org.detikcom.rss/keywords'
p7
aS'https://www.appannie.com/apps/google-play/app/com.engloryintertech.caping/keywords'
p8
aS'https://www.appannie.com/apps/google-play/app/com.ss.android.article.master.id/keywords'
p9
aS'https://www.appannie.com/apps/google-play/app/com.woi.liputan6.android/keywords'
p10
aS'https://www.appannie.com/apps/google-play/app/com.inveno.mata/keywords'
p11
aS'https://www.appannie.com/apps/google-play/app/com.ertanto.kompas.official/keywords'
p12
aS'https://www.appannie.com/apps/google-play/app/com.google.android.apps.magazines/keywords'
p13
aS'https://www.appannie.com/apps/google-play/app/com.cnn.indonesia/keywords'
p14
aS'https://www.appannie.com/apps/google-play/app/com.amzcorp.cpgojek/keywords'
p15
aS'https://www.appannie.com/apps/google-play/app/com.jalantikus.app/keywords'
p16
aS'https://www.appannie.com/apps/google-play/app/com.bolabolatelur.gorengalun/keywords'
p17
aS'https://www.appannie.com/apps/google-play/app/com.lebahbiru.oriflamekatalog/keywords'
p18
aS'https://www.appannie.com/apps/google-play/app/id.co.viva.news.app/keywords'
p19
aS'https://www.appannie.com/apps/google-play/app/com.kumparan/keywords'
p20
aS'https://www.appannie.com/apps/google-play/app/com.allmyelegance.GlitterWallpapers/keywords'
p21
aS'https://www.appannie.com/apps/google-play/app/yimm.e_catalogue/keywords'
p22
aS'https://www.appannie.com/apps/google-play/app/samsungupdate.com/keywords'
p23
aS'https://www.appannie.com/apps/google-play/app/mobile.android.tribun/keywords'
p24
aS'https://www.appannie.com/apps/google-play/app/com.vbwebdesigner.BeritaAhok/keywords'
p25
aS'https://www.appannie.com/apps/google-play/app/com.aonhub.mr/keywords'
p26
aS'https://www.appannie.com/apps/google-play/app/com.algostudio.metrotv/keywords'
p27
aS'https://www.appannie.com/apps/google-play/app/com.republika.mobile/keywords'
p28
aS'https://www.appannie.com/apps/google-play/app/ge.lanmaster.oriflamecatalogue/keywords'
p29
aS'https://www.appannie.com/apps/google-play/app/com.indomedia.tabpulsa/keywords'
p30
aS'https://www.appannie.com/apps/google-play/app/jawapos.newsreader/keywords'
p31
aS'https://www.appannie.com/apps/google-play/app/com.bosguide.guideresidentevil4/keywords'
p32
aS'https://www.appannie.com/apps/google-play/app/com.mhzstudio.bola.sepakbola.jadwal.berita.news.highlight/keywords'
p33
aS'https://www.appannie.com/apps/google-play/app/com.endrocpl.cpl.beritabaca/keywords'
p34
aS'https://www.appannie.com/apps/google-play/app/com.AbySyaif.HadistShohihBukhori/keywords'
p35
aS'https://www.appannie.com/apps/google-play/app/info.berita.islam/keywords'
p36
aS'https://www.appannie.com/apps/google-play/app/com.appsfoundry.scoop/keywords'
p37
aS'https://www.appannie.com/apps/google-play/app/com.google.android.apps.genie.geniewidget/keywords'
p38
aS'https://www.appannie.com/apps/google-play/app/flipboard.app/keywords'
p39
aS'https://www.appannie.com/apps/google-play/app/com.islampos.paket/keywords'
p40
aS'https://www.appannie.com/apps/google-play/app/com.ernesiagroups.ayokerja/keywords'
p41
aS'https://www.appannie.com/apps/google-play/app/fna.goodnews.fastnews/keywords'
p42
aS'https://www.appannie.com/apps/google-play/app/com.nivelastudio.AnekaResepKueSpesial/keywords'
p43
aS'https://www.appannie.com/apps/google-play/app/bbc.mobile.news.ww/keywords'
p44
aS'https://www.appannie.com/apps/google-play/app/swv.ecc.ugm2/keywords'
p45
aS'https://www.appannie.com/apps/google-play/app/com.reddit.frontpage/keywords'
p46
aS'https://www.appannie.com/apps/google-play/app/id.go.tangerangkota.tangeranglive/keywords'
p47
aS'https://www.appannie.com/apps/google-play/app/com.maskeralamiperawatanwajah.singdroid/keywords'
p48
aS'https://www.appannie.com/apps/google-play/app/linktone.okezone.android/keywords'
p49
aS'https://www.appannie.com/apps/google-play/app/com.mdhugoltech.rrimobile/keywords'
p50
aS'https://www.appannie.com/apps/google-play/app/flash.mobile.news.valueb/keywords'
p51
aS'https://www.appannie.com/apps/google-play/app/technology.mainspring.babenews/keywords'
p52
aS'https://www.appannie.com/apps/google-play/app/com.droidlime.apps/keywords'
p53
aS'https://www.appannie.com/apps/google-play/app/alldictdict.alldict.iden/keywords'
p54
aS'https://www.appannie.com/apps/google-play/app/com.primbonterlengkap.singdroid/keywords'
p55
aS'https://www.appannie.com/apps/google-play/app/com.cerpencintasedih.singdroid/keywords'
p56
aS'https://www.appannie.com/apps/google-play/app/com.pantunlucu.singdroid/keywords'
p57
aS'https://www.appannie.com/apps/google-play/app/com.cnn.mobile.android.phone/keywords'
p58
aS'https://www.appannie.com/apps/google-play/app/com.mobilesrepublic.appy/keywords'
p59
aS'https://www.appannie.com/apps/google-play/app/com.sindonews.android/keywords'
p60
aS'https://www.appannie.com/apps/google-play/app/com.jobs.id/keywords'
p61
aS'https://www.appannie.com/apps/google-play/app/com.allmyelegance.WallpapersphoneLockScreen/keywords'
p62
aS'https://www.appannie.com/apps/google-play/app/netmediatama.app.cj/keywords'
p63
aS'https://www.appannie.com/apps/google-play/app/com.mnews.detik/keywords'
p64
aS'https://www.appannie.com/apps/google-play/app/com.rizqinetdev.serverfhxcnew/keywords'
p65
aS'https://www.appannie.com/apps/google-play/app/com.inshomedia.sirahnabawi/keywords'
p66
aS'https://www.appannie.com/apps/google-play/app/com.gbu.app.merdeka/keywords'
p67
aS'https://www.appannie.com/apps/google-play/app/kiwiGuide.gta.sandras/keywords'
p68
aS'https://www.appannie.com/apps/google-play/app/com.berita.islam.dunia/keywords'
p69
aS'https://www.appannie.com/apps/google-play/app/com.akhyar.tv/keywords'
p70
aS'https://www.appannie.com/apps/google-play/app/aongratis.joglo.app.aongratis/keywords'
p71
aS'https://www.appannie.com/apps/google-play/app/com.mp3.livetvpakandworld/keywords'
p72
aS'https://www.appannie.com/apps/google-play/app/com.berita.islam.terkini/keywords'
p73
aS'https://www.appannie.com/apps/google-play/app/com.CerpenHororTerseram.singdroid/keywords'
p74
aS'https://www.appannie.com/apps/google-play/app/com.tempo.tempomedia/keywords'
p75
aS'https://www.appannie.com/apps/google-play/app/com.apps.foundry.tempo/keywords'
p76
aS'https://www.appannie.com/apps/google-play/app/com.developer_id.lokerdepnaker/keywords'
p77
aS'https://www.appannie.com/apps/google-play/app/de.id.wa/keywords'
p78
aS'https://www.appannie.com/apps/google-play/app/com.aladroo.fpi/keywords'
p79
aS'https://www.appannie.com/apps/google-play/app/com.katamutiaranabidansahabat.singdroid/keywords'
p80
aS'https://www.appannie.com/apps/google-play/app/com.jurnalotaku.joi/keywords'
p81
aS'https://www.appannie.com/apps/google-play/app/com.interistiindonesia.app/keywords'
p82
aS'https://www.appannie.com/apps/google-play/app/com.CerpenCIntaRemaja.singdroid/keywords'
p83
aS'https://www.appannie.com/apps/google-play/app/id.makery.seword/keywords'
p84
aS'https://www.appannie.com/apps/google-play/app/com.app.blackmart/keywords'
p85
aS'https://www.appannie.com/apps/google-play/app/com.miui.forums/keywords'
p86
aS'https://www.appannie.com/apps/google-play/app/com.akutresno.kumulanniatsholatlengkap/keywords'
p87
aS'https://www.appannie.com/apps/google-play/app/com.mediaislam.indonesia/keywords'
p88
aS'https://www.appannie.com/apps/google-play/app/com.mnews.tempo/keywords'
p89
aS'https://www.appannie.com/apps/google-play/app/com.lowongan.kerja.indonesia.update/keywords'
p90
aS'https://www.appannie.com/apps/google-play/app/com.nexusupdate.android/keywords'
p91
aS'https://www.appannie.com/apps/google-play/app/com.beritasatu/keywords'
p92
aS'https://www.appannie.com/apps/google-play/app/mobile.android.tribun.daerah.aceh/keywords'
p93
aS'https://www.appannie.com/apps/google-play/app/com.lebahbiru.oriflamecatalog/keywords'
p94
aS'https://www.appannie.com/apps/google-play/app/com.ideashower.readitlater.pro/keywords'
p95
aS'https://www.appannie.com/apps/google-play/app/com.autonetmagz/keywords'
p96
aS'https://www.appannie.com/apps/google-play/app/com.pakardigital.maungbandung/keywords'
p97
aS'https://www.appannie.com/apps/google-play/app/com.newspaperdirect.jakartapost.android/keywords'
p98
aS'https://www.appannie.com/apps/google-play/app/com.bantenid/keywords'
p99
aS'https://www.appannie.com/apps/google-play/app/com.herdy.resepkuelebaran/keywords'
p100
aS'https://www.appannie.com/apps/google-play/app/com.flash.global.news/keywords'
p101
aS'https://www.appannie.com/apps/google-play/app/vn.com.temnplerun1.tkhtutorial/keywords'
p102
aS'https://www.appannie.com/apps/google-play/app/com.medium.reader/keywords'
p103
aS'https://www.appannie.com/apps/google-play/app/com.berita.ahok/keywords'
p104
aS'https://www.appannie.com/apps/google-play/app/co.kontan/keywords'
p105
aS'https://www.appannie.com/apps/google-play/app/com.villandroid.perkembanganJanin/keywords'
p106
aS'https://www.appannie.com/apps/google-play/app/com.wsuarasurabayanet_4131485/keywords'
p107
aS'https://www.appannie.com/apps/google-play/app/id.co.nationalgeographic/keywords'
p108
aS'https://www.appannie.com/apps/google-play/app/com.tawadu.awewe/keywords'
p109
aS'https://www.appannie.com/apps/google-play/app/com.tv.hot.tvindonesiaonline/keywords'
p110
aS'https://www.appannie.com/apps/google-play/app/com.magazinecloner.shopkinsmag/keywords'
p111
aS'https://www.appannie.com/apps/google-play/app/com.issuu.android.app/keywords'
p112
aS'https://www.appannie.com/apps/google-play/app/com.berita.bola.terupdate.ok/keywords'
p113
aS'https://www.appannie.com/apps/google-play/app/com.katamutiaracintapilihan.singdroid/keywords'
p114
aS'https://www.appannie.com/apps/google-play/app/com.doubled.hypermart/keywords'
p115
aS'https://www.appannie.com/apps/google-play/app/com.berita.kpop/keywords'
p116
aS'https://www.appannie.com/apps/google-play/app/com.antaranews.app/keywords'
p117
aS'https://www.appannie.com/apps/google-play/app/org.infotekno/keywords'
p118
aS'https://www.appannie.com/apps/google-play/app/com.wPAJAKKENDARAANJAMBI/keywords'
p119
aS'https://www.appannie.com/apps/google-play/app/com.detik.merdeka.kompas.news/keywords'
p120
aS'https://www.appannie.com/apps/google-play/app/com.creativecodestudio.digipress.digitalkoransindo/keywords'
p121
aS'https://www.appannie.com/apps/google-play/app/com.humorsufi.singdroid/keywords'
p122
aS'https://www.appannie.com/apps/google-play/app/bisnis.com.official/keywords'
p123
aS'https://www.appannie.com/apps/google-play/app/id.techinasia.ct/keywords'
p124
aS'https://www.appannie.com/apps/google-play/app/com.intelliappstudio.majalahpulsa/keywords'
p125
aS'https://www.appannie.com/apps/google-play/app/appinventor.ai_aliminsyamsuddin.WSI/keywords'
p126
aS'https://www.appannie.com/apps/google-play/app/com.rayuangombal.singdroid/keywords'
p127
aS'https://www.appannie.com/apps/google-play/app/buqu.motorplus.android/keywords'
p128
aS'https://www.appannie.com/apps/google-play/app/com.odp.ssfm/keywords'
p129
aS'https://www.appannie.com/apps/google-play/app/com.kumpulan.berita/keywords'
p130
aS'https://www.appannie.com/apps/google-play/app/com.dailymail.online/keywords'
p131
aS'https://www.appannie.com/apps/google-play/app/com.jadual.gp/keywords'
p132
aS'https://www.appannie.com/apps/google-play/app/jrlapo.metal.slug/keywords'
p133
aS'https://www.appannie.com/apps/google-play/app/mobile.android.tribun.daerah.makassar/keywords'
p134
aS'https://www.appannie.com/apps/google-play/app/mobile.android.tribun.daerah.bali/keywords'
p135
aS'https://www.appannie.com/apps/google-play/app/com.indonesia.hotnews/keywords'
p136
aS'https://www.appannie.com/apps/google-play/app/com.guardian/keywords'
p137
aS'https://www.appannie.com/apps/google-play/app/panditfootball.com.panditfootball/keywords'
p138
aS'https://www.appannie.com/apps/google-play/app/com.dispenad.tniad/keywords'
p139
aS'https://www.appannie.com/apps/google-play/app/com.appsfoundry.scoopwl.id.popular/keywords'
p140
aS'https://www.appannie.com/apps/google-play/app/com.outstanding/keywords'
p141
aS'https://www.appannie.com/apps/google-play/app/com.ceritahumorlucu.singdroid/keywords'
p142
aS'https://www.appannie.com/apps/google-play/app/com.muhammadiyah.app/keywords'
p143
aS'https://www.appannie.com/apps/google-play/app/com.hipwee.mobile/keywords'
p144
aS'https://www.appannie.com/apps/google-play/app/com.mediaindonesia.mediastore/keywords'
p145
aS'https://www.appannie.com/apps/google-play/app/com.gulbers.beter/keywords'
p146
aS'https://www.appannie.com/apps/google-play/app/com.berita.saham.dan.forex/keywords'
p147
aS'https://www.appannie.com/apps/google-play/app/id.suaramuhammadiyah.newsapp/keywords'
p148
aS'https://www.appannie.com/apps/google-play/app/com.ml.soompi/keywords'
p149
aS'https://www.appannie.com/apps/google-play/app/com.pencaksilat.singdroid/keywords'
p150
aS'https://www.appannie.com/apps/google-play/app/jpnn.newsreader/keywords'
p151
aS'https://www.appannie.com/apps/google-play/app/com.renungan.rohani.harian.blogpress/keywords'
p152
aS'https://www.appannie.com/apps/google-play/app/com.studio.anisa.semuaberita/keywords'
p153
aS'https://www.appannie.com/apps/google-play/app/mobile.android.tribun.daerah.pontianak/keywords'
p154
aS'https://www.appannie.com/apps/google-play/app/mobile.android.tribun.daerah.medan/keywords'
p155
aS'https://www.appannie.com/apps/google-play/app/com.kisahdajjal.singdroid/keywords'
p156
aS'https://www.appannie.com/apps/google-play/app/com.goldenmus.pes17.proevolution.soccer2016.pesgame/keywords'
p157
aS'https://www.appannie.com/apps/google-play/app/com.kitabfiqihnikah.singdroid/keywords'
p158
aS'https://www.appannie.com/apps/google-play/app/com.tv.islam/keywords'
p159
aS'https://www.appannie.com/apps/google-play/app/com.mta.android/keywords'
p160
aS'https://www.appannie.com/apps/google-play/app/com.Fikihbisnisdanriba.singdroid/keywords'
p161
aS'https://www.appannie.com/apps/google-play/app/mkri.go.id/keywords'
p162
aS'https://www.appannie.com/apps/google-play/app/mobile.android.tribun.daerah.banjarmasin/keywords'
p163
aS'https://www.appannie.com/apps/google-play/app/the.viral.shots/keywords'
p164
aS'https://www.appannie.com/apps/google-play/app/com.detik.detik20/keywords'
p165
aS'https://www.appannie.com/apps/google-play/app/com.amzcorp.bpjs/keywords'
p166
aS'https://www.appannie.com/apps/google-play/app/mobile.android.tribun.daerah.bangka/keywords'
p167
aS'https://www.appannie.com/apps/google-play/app/com.find.your.jobs/keywords'
p168
aS'https://www.appannie.com/apps/google-play/app/id.artefact.hidayatullah/keywords'
p169
aS'https://www.appannie.com/apps/google-play/app/com.bambuna.podcastaddict/keywords'
p170
aS'https://www.appannie.com/apps/google-play/app/com.buzzfeed.android/keywords'
p171
aS'https://www.appannie.com/apps/google-play/app/sigap.koperasi.com.sigapkoperasi/keywords'
p172
aS'https://www.appannie.com/apps/google-play/app/com.info.persija.oprekandroid/keywords'
p173
aS'https://www.appannie.com/apps/google-play/app/com.ionicframework.kintakun/keywords'
p174
aS'https://www.appannie.com/apps/google-play/app/com.berita.motogp.terbaru/keywords'
p175
aS'https://www.appannie.com/apps/google-play/app/glenn.e_catalogue/keywords'
p176
aS'https://www.appannie.com/apps/google-play/app/com.nytimes.android/keywords'
p177
aS'https://www.appannie.com/apps/google-play/app/mobile.android.tribun.daerah.jabar/keywords'
p178
aS'https://www.appannie.com/apps/google-play/app/com.chripcastmedia.beritaindonesia/keywords'
p179
aS'https://www.appannie.com/apps/google-play/app/com.iart.chromecastapps/keywords'
p180
aS'https://www.appannie.com/apps/google-play/app/com.idntimes.idntimes/keywords'
p181
aS'https://www.appannie.com/apps/google-play/app/com.misterikhidir.singdroid/keywords'
p182
aS'https://www.appannie.com/apps/google-play/app/com.creative2apps.resepbolukukus/keywords'
p183
aS'https://www.appannie.com/apps/google-play/app/id.tirto/keywords'
p184
aS'https://www.appannie.com/apps/google-play/app/team.vc.kompaskiosk/keywords'
p185
aS'https://www.appannie.com/apps/google-play/app/com.mumet.bursakerjabumn/keywords'
p186
aS'https://www.appannie.com/apps/google-play/app/com.berita.persija.kemayoran/keywords'
p187
aS'https://www.appannie.com/apps/google-play/app/com.berita.otomotif.info/keywords'
p188
aS'https://www.appannie.com/apps/google-play/app/com.adelinolobao.indonesianews/keywords'
p189
aS'https://www.appannie.com/apps/google-play/app/mobile.android.tribun.daerah.jogja/keywords'
p190
aS'https://www.appannie.com/apps/google-play/app/com.cosmic.sonus.news.india.hindi/keywords'
p191
aS'https://www.appannie.com/apps/google-play/app/com.berita.dunia.world/keywords'
p192
aS'https://www.appannie.com/apps/google-play/app/com.gonews.goriau/keywords'
p193
aS'https://www.appannie.com/apps/google-play/app/com.zinio.mobile.android.reader/keywords'
p194
aS'https://www.appannie.com/apps/google-play/app/fm.player/keywords'
p195
aS'https://www.appannie.com/apps/google-play/app/com.hypebeast.editorial/keywords'
p196
aS'https://www.appannie.com/apps/google-play/app/com.podcast.podcasts/keywords'
p197
aS'https://www.appannie.com/apps/google-play/app/com.intelliappstudio.beritaselebritis/keywords'
p198
aS'https://www.appannie.com/apps/google-play/app/flipboard.boxer.app/keywords'
p199
aS'https://www.appannie.com/apps/google-play/app/com.tajwid.singdroid/keywords'
p200
aS'https://www.appannie.com/apps/google-play/app/com.beritabola.beritabola/keywords'
p201
aS'https://www.appannie.com/apps/google-play/app/com.lwl.berita/keywords'
p202
aS'https://www.appannie.com/apps/google-play/app/com.siyarox.indonesianewspapers/keywords'
p203
aS'https://www.appannie.com/apps/google-play/app/com.dennysiregar.app/keywords'
p204
aS'https://www.appannie.com/apps/google-play/app/id.go.lapan.lapanhotspot/keywords'
p205
aS'https://www.appannie.com/apps/google-play/app/com.slo2.bcm2.newguideangrybirdtransformers/keywords'
p206
aS'https://www.appannie.com/apps/google-play/app/in.AajTak.headlines/keywords'
p207
aS'https://www.appannie.com/apps/google-play/app/com.appsfoundry.scoopwl.id.tribun/keywords'
p208
aS'https://www.appannie.com/apps/google-play/app/com.rekrutmen.kerja/keywords'
p209
aS'https://www.appannie.com/apps/google-play/app/kr.jogja.com/keywords'
p210
aS'https://www.appannie.com/apps/google-play/app/com.tawadu.hero111/keywords'
p211
aS'https://www.appannie.com/apps/google-play/app/com.project.score1/keywords'
p212
aS'https://www.appannie.com/apps/google-play/app/codepolitan.lite.newreaders/keywords'
p213
aS'https://www.appannie.com/apps/google-play/app/mobile.android.tribun.daerah.jateng/keywords'
p214
aS'https://www.appannie.com/apps/google-play/app/com.berita.islam.indo/keywords'
p215
aS'https://www.appannie.com/apps/google-play/app/com.app.analisadaily/keywords'
p216
aS'https://www.appannie.com/apps/google-play/app/com.thomsonreuters.reuters/keywords'
p217
aS'https://www.appannie.com/apps/google-play/app/com.nuskinenterprises.nuskin/keywords'
p218
aS'https://www.appannie.com/apps/google-play/app/com.guide.join.pes2017.tips/keywords'
p219
aS'https://www.appannie.com/apps/google-play/app/com.karirmedan/keywords'
p220
aS'https://www.appannie.com/apps/google-play/app/com.poskotanews.app/keywords'
p221
aS'https://www.appannie.com/apps/google-play/app/com.eterno/keywords'
p222
aS'https://www.appannie.com/apps/google-play/app/com.sony.nfx.app.sfrc/keywords'
p223
aS'https://www.appannie.com/apps/google-play/app/buqu.otomotif.android/keywords'
p224
aS'https://www.appannie.com/apps/google-play/app/air.com.launchday.mobile.plantsvszombies/keywords'
p225
aS'https://www.appannie.com/apps/google-play/app/com.yesi.yopi.yesi/keywords'
p226
aS'https://www.appannie.com/apps/google-play/app/com.ak.ta.dainikbhaskar.activity/keywords'
p227
aS'https://www.appannie.com/apps/google-play/app/com.berita.bisnis.info/keywords'
p228
aS'https://www.appannie.com/apps/google-play/app/jp.m78.shuwapp/keywords'
p229
aS'https://www.appannie.com/apps/google-play/app/com.devhd.feedly/keywords'
p230
aS'https://www.appannie.com/apps/google-play/app/com.knx.jakartapost/keywords'
p231
aS'https://www.appannie.com/apps/google-play/app/com.extrainteger.maiyahapps/keywords'
p232
aS'https://www.appannie.com/apps/google-play/app/com.PanduanBudidayaikancupang.singdroid/keywords'
p233
aS'https://www.appannie.com/apps/google-play/app/com.alrais.cocfhxserver/keywords'
p234
aS'https://www.appannie.com/apps/google-play/app/com.microsoft.amp.apps.bingnews/keywords'
p235
aS'https://www.appannie.com/apps/google-play/app/com.rumahminimalis2016.singdroid/keywords'
p236
aS'https://www.appannie.com/apps/google-play/app/gov.bbg.voa/keywords'
p237
aS'https://www.appannie.com/apps/google-play/app/tv.cchan.harajuku/keywords'
p238
aS'https://www.appannie.com/apps/google-play/app/com.foxnews.android/keywords'
p239
aS'https://www.appannie.com/apps/google-play/app/com.nip.cennoticias/keywords'
p240
aS'https://www.appannie.com/apps/google-play/app/com.lowongan.kerja/keywords'
p241
aS'https://www.appannie.com/apps/google-play/app/asia.cyberlabs.duniajilbab/keywords'
p242
aS'https://www.appannie.com/apps/google-play/app/com.TheresiaYang1.KalenderLiturgi2017/keywords'
p243
aS'https://www.appannie.com/apps/google-play/app/com.griffincommunications.droid.news9/keywords'
p244
aS'https://www.appannie.com/apps/google-play/app/com.project.madanitv/keywords'
p245
aS'https://www.appannie.com/apps/google-play/app/com.raka.tinggaldirumahhantu/keywords'
p246
aS'https://www.appannie.com/apps/google-play/app/com.fajaronline.fajaronline/keywords'
p247
aS'https://www.appannie.com/apps/google-play/app/com.maskeralamiperawatanrambut.singdroid/keywords'
p248
aS'https://www.appannie.com/apps/google-play/app/com.berita.sulsel/keywords'
p249
aS'https://www.appannie.com/apps/google-play/app/com.crushdev.hipwee/keywords'
p250
aS'https://www.appannie.com/apps/google-play/app/com.magazinecloner.bbmlive/keywords'
p251
aS'https://www.appannie.com/apps/google-play/app/com.nador.yallahShoot/keywords'
p252
aS'https://www.appannie.com/apps/google-play/app/com.wmajalahtrubus11/keywords'
p253
aS'https://www.appannie.com/apps/google-play/app/com.ww7uplagi/keywords'
p254
aS'https://www.appannie.com/apps/google-play/app/com.belajar.saham.dan.forex/keywords'
p255
aS'https://www.appannie.com/apps/google-play/app/com.KumpulanHadis.singdroid/keywords'
p256
aS'https://www.appannie.com/apps/google-play/app/appinventor.ai_Priyo53.saberpungli/keywords'
p257
aS'https://www.appannie.com/apps/google-play/app/com.winit.starnews.hin/keywords'
p258
aS'https://www.appannie.com/apps/google-play/app/pnp.id.iniberita/keywords'
p259
aS'https://www.appannie.com/apps/google-play/app/id.web.jadwalevent.jadwaljobfair/keywords'
p260
aS'https://www.appannie.com/apps/google-play/app/air.com.screenpapermedia.basic.mobile.launchday.callofduty/keywords'
p261
aS'https://www.appannie.com/apps/google-play/app/news.cari.app/keywords'
p262
aS'https://www.appannie.com/apps/google-play/app/mobile.android.tribun.daerah.lampung/keywords'
p263
aS'https://www.appannie.com/apps/google-play/app/com.dci.magzter/keywords'
p264
aS'https://www.appannie.com/apps/google-play/app/mobile.android.tribun.daerah.kaltim/keywords'
p265
aS'https://www.appannie.com/apps/google-play/app/com.walisongo.singdroid/keywords'
p266
aS'https://www.appannie.com/apps/google-play/app/com.kumpulan.aplikasi.game.berhadiah/keywords'
p267
aS'https://www.appannie.com/apps/google-play/app/com.yahoo.mobile.client.android.atom/keywords'
p268
aS'https://www.appannie.com/apps/google-play/app/com.is.beritaislam/keywords'
p269
aS'https://www.appannie.com/apps/google-play/app/com.a83146760554baf1cdae0499a.a99394247a/keywords'
p270
aS'https://www.appannie.com/apps/google-play/app/com.zeenews.hindinews/keywords'
p271
aS'https://www.appannie.com/apps/google-play/app/com.nontontvindonesia.apps.beritakoranindonesia/keywords'
p272
aS'https://www.appannie.com/apps/google-play/app/com.primbonjawa.anakkupang/keywords'
p273
aS'https://www.appannie.com/apps/google-play/app/com.androidauthority.app/keywords'
p274
aS'https://www.appannie.com/apps/google-play/app/net.develmedia.jafracatalog/keywords'
p275
aS'https://www.appannie.com/apps/google-play/app/com.intelliappstudio.beritateknologi/keywords'
p276
aS'https://www.appannie.com/apps/google-play/app/com.androidisme.etikasuamiistri.ETIKASUAMIISTRI/keywords'
p277
aS'https://www.appannie.com/apps/google-play/app/com.monzonito.earthquakealerts/keywords'
p278
aS'https://www.appannie.com/apps/google-play/app/com.puisicintainspiratif.singdroid/keywords'
p279
aS'https://www.appannie.com/apps/google-play/app/com.kitabbidah.singdroid/keywords'
p280
aS'https://www.appannie.com/apps/google-play/app/com.koragoal.serverhome/keywords'
p281
aS'https://www.appannie.com/apps/google-play/app/com.indonesia.news/keywords'
p282
aS'https://www.appannie.com/apps/google-play/app/radarlampung.co.id.radarlampung/keywords'
p283
aS'https://www.appannie.com/apps/google-play/app/wsj.reader_sp/keywords'
p284
aS'https://www.appannie.com/apps/google-play/app/com.dongenganakpopuler.singdroid/keywords'
p285
aS'https://www.appannie.com/apps/google-play/app/net.aljazeera.english/keywords'
p286
aS'https://www.appannie.com/apps/google-play/app/air.com.launchday.mobile.sonicboom/keywords'
p287
aS'https://www.appannie.com/apps/google-play/app/m.noom.vierdriedrie/keywords'
p288
aS'https://www.appannie.com/apps/google-play/app/com.techinasia.ct/keywords'
p289
aS'https://www.appannie.com/apps/google-play/app/berita.persijajakarta/keywords'
p290
aS'https://www.appannie.com/apps/google-play/app/com.svr.ecat2/keywords'
p291
aS'https://www.appannie.com/apps/google-play/app/com.newspaperdirect.pressreader.android/keywords'
p292
aS'https://www.appannie.com/apps/google-play/app/com.idmedia.android.newsportal/keywords'
p293
aS'https://www.appannie.com/apps/google-play/app/net.derohimat.cekhaji/keywords'
p294
aS'https://www.appannie.com/apps/google-play/app/com.wBeritaSTKIP_4645606/keywords'
p295
aS'https://www.appannie.com/apps/google-play/app/com.zaman.akhir/keywords'
p296
aS'https://www.appannie.com/apps/google-play/app/com.archstudio.infoberitaalutsistatni/keywords'
p297
aS'https://www.appannie.com/apps/google-play/app/com.wWebsiteTentaraNasionalIndonesia/keywords'
p298
aS'https://www.appannie.com/apps/google-play/app/com.beritaumatislam.beritaumatislam/keywords'
p299
aS'https://www.appannie.com/apps/google-play/app/netmediatama.netz.netz/keywords'
p300
aS'https://www.appannie.com/apps/google-play/app/br.com.revistaviu/keywords'
p301
aS'https://www.appannie.com/apps/google-play/app/com.info.lowongankerja/keywords'
p302
aS'https://www.appannie.com/apps/google-play/app/pr.nip.cennoticias/keywords'
p303
aS'https://www.appannie.com/apps/google-play/app/mobile.android.tribun.daerah.batam/keywords'
p304
aS'https://www.appannie.com/apps/google-play/app/com.btmnl61586.kurayubidadariliriklagu/keywords'
p305
aS'https://www.appannie.com/apps/google-play/app/it.pinenuts.rassegnastampa/keywords'
p306
aS'https://www.appannie.com/apps/google-play/app/com.dendroid.teknikbudidayahidroponik/keywords'
p307
aS'https://www.appannie.com/apps/google-play/app/com.piyungan.online/keywords'
p308
aS'https://www.appannie.com/apps/google-play/app/id.co.sm.sminfo/keywords'
p309
aS'https://www.appannie.com/apps/google-play/app/com.andromo.dev231870.app230480/keywords'
p310
aS'https://www.appannie.com/apps/google-play/app/com.wlampostco64/keywords'
p311
aS'https://www.appannie.com/apps/google-play/app/com.namabayilakiistimewa.mbahodi/keywords'
p312
aS'https://www.appannie.com/apps/google-play/app/com.idnfinancials.android/keywords'
p313
aS'https://www.appannie.com/apps/google-play/app/com.cerpenislamiberhikmah.singdroid/keywords'
p314
aS'https://www.appannie.com/apps/google-play/app/com.wBERITAPNSCOM/keywords'
p315
aS'https://www.appannie.com/apps/google-play/app/com.berita.sumbar.zgazfnzreagdhnialrdaq/keywords'
p316
aS'https://www.appannie.com/apps/google-play/app/com.pakarinvestasi/keywords'
p317
aS'https://www.appannie.com/apps/google-play/app/com.wartaekonomi/keywords'
p318
aS'https://www.appannie.com/apps/google-play/app/com.kabar.makkah/keywords'
p319
aS'https://www.appannie.com/apps/google-play/app/com.inponsel.android/keywords'
p320
aS'https://www.appannie.com/apps/google-play/app/com.ww24GSpeedBrowser360DS_3762737/keywords'
p321
aS'https://www.appannie.com/apps/google-play/app/com.detik.pasangmata/keywords'
p322
aS'https://www.appannie.com/apps/google-play/app/com.ilmukebatinan.singdroid/keywords'
p323
aS'https://www.appannie.com/apps/google-play/app/com.mbahodi.kitabtasawuflengkap/keywords'
p324
aS'https://www.appannie.com/apps/google-play/app/com.amzcorp.grab/keywords'
p325
aS'https://www.appannie.com/apps/google-play/app/com.resepkuekering.singdroid/keywords'
p326
aS'https://www.appannie.com/apps/google-play/app/id.gits.news.swa/keywords'
p327
aS'https://www.appannie.com/apps/google-play/app/com.mahoni.majalahindonesia/keywords'
p328
aS'https://www.appannie.com/apps/google-play/app/com.beritajatim.info/keywords'
p329
aS'https://www.appannie.com/apps/google-play/app/com.cerpenhororkisahnyata.singdroid/keywords'
p330
aS'https://www.appannie.com/apps/google-play/app/com.asus_zenfone.www.asus_zenfoneblog/keywords'
p331
aS'https://www.appannie.com/apps/google-play/app/uk.co.economist/keywords'
p332
aS'https://www.appannie.com/apps/google-play/app/com.softonic/keywords'
p333
aS'https://www.appannie.com/apps/google-play/app/com.hindi.jagran.android.activity/keywords'
p334
aS'https://www.appannie.com/apps/google-play/app/mobile.android.tribun.daerah.jambi/keywords'
p335
aS'https://www.appannie.com/apps/google-play/app/com.tnews.beritaolahraga/keywords'
p336
aS'https://www.appannie.com/apps/google-play/app/com.stad.homemobasher/keywords'
p337
aS'https://www.appannie.com/apps/google-play/app/app.alumni.smasa/keywords'
p338
aS'https://www.appannie.com/apps/google-play/app/com.konsepmobile.gatranews/keywords'
p339
aS'https://www.appannie.com/apps/google-play/app/com.magazinecloner.mtguidetoflstudio/keywords'
p340
aS'https://www.appannie.com/apps/google-play/app/net.myhopestudio.gadgetmania/keywords'
p341
aS'https://www.appannie.com/apps/google-play/app/com.is.beritabola/keywords'
p342
aS'https://www.appannie.com/apps/google-play/app/id.co.kontan.epaper/keywords'
p343
aS'https://www.appannie.com/apps/google-play/app/all.newspapers.world/keywords'
p344
aS'https://www.appannie.com/apps/google-play/app/com.beda.media/keywords'
p345
aS'https://www.appannie.com/apps/google-play/app/com.freerange360.mpp.businessinsider/keywords'
p346
aS'https://www.appannie.com/apps/google-play/app/com.suara/keywords'
p347
aS'https://www.appannie.com/apps/google-play/app/com.karakterdanramalanshio.singdroid/keywords'
p348
aS'https://www.appannie.com/apps/google-play/app/com.nador.goal/keywords'
p349
aS'https://www.appannie.com/apps/google-play/app/com.karakterberdasarkanprimbon.singdroid/keywords'
p350
aS'https://www.appannie.com/apps/google-play/app/com.daingo.news.indonesia/keywords'
p351
aS'https://www.appannie.com/apps/google-play/app/com.rmol.android.rmol/keywords'
p352
aS'https://www.appannie.com/apps/google-play/app/com.ionicframework.ensiklopedia468889/keywords'
p353
aS'https://www.appannie.com/apps/google-play/app/com.KitabIlmuTasawufLengkap.kangodi/keywords'
p354
aS'https://www.appannie.com/apps/google-play/app/com.Inspirasi.Peluang.UsahaUKM/keywords'
p355
aS'https://www.appannie.com/apps/google-play/app/co.id.waspada/keywords'
p356
aS'https://www.appannie.com/apps/google-play/app/all.newspapers.id/keywords'
p357
aS'https://www.appannie.com/apps/google-play/app/com.gonews.aceh/keywords'
p358
aS'https://www.appannie.com/apps/google-play/app/com.july.ndtv/keywords'
p359
aS'https://www.appannie.com/apps/google-play/app/com.wriauposco/keywords'
p360
aS'https://www.appannie.com/apps/google-play/app/com.tv.ldiijatim/keywords'
p361
aS'https://www.appannie.com/apps/google-play/app/com.JakartaGlobe/keywords'
p362
aS'https://www.appannie.com/apps/google-play/app/com.newdesainkebayamodern.singdroid/keywords'
p363
aS'https://www.appannie.com/apps/google-play/app/com.andromaxtab.blog/keywords'
p364
aS'https://www.appannie.com/apps/google-play/app/com.binercom.novelberdarah/keywords'
p365
aS'https://www.appannie.com/apps/google-play/app/com.zumobi.msnbc/keywords'
p366
aS'https://www.appannie.com/apps/google-play/app/pitik.duwur.trickcrisisactionbestfreefps/keywords'
p367
aS'https://www.appannie.com/apps/google-play/app/mobile.android.tribun.daerah.sripo/keywords'
p368
aS'https://www.appannie.com/apps/google-play/app/com.aol.mobile.aolapp/keywords'
p369
aS'https://www.appannie.com/apps/google-play/app/id.co.rri.rrionline/keywords'
p370
aS'https://www.appannie.com/apps/google-play/app/ddw.gegerbanaran.newslivemestreamlivetipa/keywords'
p371
aS'https://www.appannie.com/apps/google-play/app/com.samsungupdate.updates/keywords'
p372
aS'https://www.appannie.com/apps/google-play/app/com.mawindi.beritaahokdjarot/keywords'
p373
aS'https://www.appannie.com/apps/google-play/app/com.tawadu.birds/keywords'
p374
aS'https://www.appannie.com/apps/google-play/app/com.allmyelegance.DIYFashionClothes/keywords'
p375
aS'https://www.appannie.com/apps/google-play/app/id.telset.telsetapps/keywords'
p376
aS'https://www.appannie.com/apps/google-play/app/com.mukjizatrosullullah.singdroid/keywords'
p377
aS'https://www.appannie.com/apps/google-play/app/com.mentari.IDNtimes/keywords'
p378
aS'https://www.appannie.com/apps/google-play/app/com.tokoonline168.apps.beritabolaallinone/keywords'
p379
aS'https://www.appannie.com/apps/google-play/app/com.berita.papua.matoaedulab/keywords'
p380
aS'https://www.appannie.com/apps/google-play/app/com.elshintadotcom.rcvoe/keywords'
p381
aS'https://www.appannie.com/apps/google-play/app/androlite.gempabumiindonesia/keywords'
p382
aS'https://www.appannie.com/apps/google-play/app/com.mobincube.android.sc_G25Z5/keywords'
p383
aS'https://www.appannie.com/apps/google-play/app/com.teropongsenayan.newsreader/keywords'
p384
aS'https://www.appannie.com/apps/google-play/app/com.BeritaInterMilanIndonesia/keywords'
p385
aS'https://www.appannie.com/apps/google-play/app/com.sexy.scandals/keywords'
p386
aS'https://www.appannie.com/apps/google-play/app/info.beritaunik/keywords'
p387
aS'https://www.appannie.com/apps/google-play/app/com.chakoo.beritaindonesianews/keywords'
p388
aS'https://www.appannie.com/apps/google-play/app/appinventor.batampos.coid/keywords'
p389
aS'https://www.appannie.com/apps/google-play/app/cn.tiger.livetoto4d/keywords'
p390
aS'https://www.appannie.com/apps/google-play/app/com.opera.android.news/keywords'
p391
aS'https://www.appannie.com/apps/google-play/app/com.breakthru.iwanbanaran/keywords'
p392
aS'https://www.appannie.com/apps/google-play/app/com.huffingtonpost.android/keywords'
p393
aS'https://www.appannie.com/apps/google-play/app/com.ayaldev.app.abs_cbn_news/keywords'
p394
aS'https://www.appannie.com/apps/google-play/app/com.panduantahajuddanwitir.singdroid/keywords'
p395
aS'https://www.appannie.com/apps/google-play/app/com.desainundangan.singdroid/keywords'
p396
aS'https://www.appannie.com/apps/google-play/app/com.allmyelegance.DIYHomeDecorIdeas/keywords'
p397
aS'https://www.appannie.com/apps/google-play/app/com.ss.android.article.news/keywords'
p398
aS'https://www.appannie.com/apps/google-play/app/com.noinnion.android.voicereading/keywords'
p399
aS'https://www.appannie.com/apps/google-play/app/com.cerpencintakisahnyata.singdroid/keywords'
p400
aS'https://www.appannie.com/apps/google-play/app/com.balitv/keywords'
p401
aS'https://www.appannie.com/apps/google-play/app/com.androidupdates/keywords'
p402
aS'https://www.appannie.com/apps/google-play/app/com.Komika.Indonesia/keywords'
p403
aS'https://www.appannie.com/apps/google-play/app/com.chalax.lahatonline/keywords'
p404
aS'https://www.appannie.com/apps/google-play/app/com.Ceramahislamiterbaik.singdroid/keywords'
p405
aS'https://www.appannie.com/apps/google-play/app/com.bacaberitaislam.bacaberitaislam/keywords'
p406
aS'https://www.appannie.com/apps/google-play/app/com.lionexpress.app/keywords'
p407
aS'https://www.appannie.com/apps/google-play/app/com.toolszoom.tricksfor.wwe2konesix.tricksforwwe.guideforwwe/keywords'
p408
aS'https://www.appannie.com/apps/google-play/app/buqu.autobild.android/keywords'
p409
aS'https://www.appannie.com/apps/google-play/app/com.rainbow.vn.theme.animekisslockscreen/keywords'
p410
aS'https://www.appannie.com/apps/google-play/app/com.radarcirebon.news/keywords'
p411
aS'https://www.appannie.com/apps/google-play/app/com.wPOSTMETRO_4246055/keywords'
p412
aS'https://www.appannie.com/apps/google-play/app/com.honeydev.resep.nusantara/keywords'
p413
aS'https://www.appannie.com/apps/google-play/app/com.mahoni.sinyal/keywords'
p414
aS'https://www.appannie.com/apps/google-play/app/com.creative2apps.resepcekersetan/keywords'
p415
aS'https://www.appannie.com/apps/google-play/app/indonesia.breaking.news/keywords'
p416
aS'https://www.appannie.com/apps/google-play/app/com.desainmehndi.singdroid/keywords'
p417
aS'https://www.appannie.com/apps/google-play/app/com.toi.reader.activities/keywords'
p418
aS'https://www.appannie.com/apps/google-play/app/com.dajjal.kisahasalusuldajjal/keywords'
p419
aS'https://www.appannie.com/apps/google-play/app/mobile.android.tribun.daerah.manado/keywords'
p420
aS'https://www.appannie.com/apps/google-play/app/com.newspaperdirect.jawapos.android/keywords'
p421
aS'https://www.appannie.com/apps/google-play/app/com.ai.dev.kumpulanterjemahkitabkitabkuning/keywords'
p422
aS'https://www.appannie.com/apps/google-play/app/com.andromo.dev583926.app555154/keywords'
p423
aS'https://www.appannie.com/apps/google-play/app/com.intelliappstudio.majalahwanita/keywords'
p424
aS'https://www.appannie.com/apps/google-play/app/com.harian.aceh.indonesia/keywords'
p425
aS'https://www.appannie.com/apps/google-play/app/com.pkkumb.mobile/keywords'
p426
aS'https://www.appannie.com/apps/google-play/app/com.buntetstudio.chordlagusambalado/keywords'
p427
aS'https://www.appannie.com/apps/google-play/app/com.allmyelegance.DIYCraftsIdeas/keywords'
p428
aS'https://www.appannie.com/apps/google-play/app/design.radartegal.com/keywords'
p429
aS'https://www.appannie.com/apps/google-play/app/com.chakoo.beritama/keywords'
p430
aS'https://www.appannie.com/apps/google-play/app/dilantaspoldariau.webby.dilantaspoldariau/keywords'
p431
aS'https://www.appannie.com/apps/google-play/app/sarapan.pagi.site/keywords'
p432
aS'https://www.appannie.com/apps/google-play/app/mobile.android.tribun.daerah.sumsel/keywords'
p433
aS'https://www.appannie.com/apps/google-play/app/com.islamedia.co/keywords'
p434
aS'https://www.appannie.com/apps/google-play/app/com.binercom.kenapabelumtidur/keywords'
p435
aS'https://www.appannie.com/apps/google-play/app/com.biografiulama.singdroid/keywords'
p436
aS'https://www.appannie.com/apps/google-play/app/mobile.android.tribun.daerah.pekanbaru/keywords'
p437
aS'https://www.appannie.com/apps/google-play/app/co.id.borneonews.reader.beta/keywords'
p438
aS'https://www.appannie.com/apps/google-play/app/com.portal.piyungan/keywords'
p439
aS'https://www.appannie.com/apps/google-play/app/com.ps.projectsinggalang/keywords'
p440
aS'https://www.appannie.com/apps/google-play/app/com.appsfoundry.scoopwl.id.infobank/keywords'
p441
aS'https://www.appannie.com/apps/google-play/app/com.wLowonganKerjaBatam/keywords'
p442
aS'https://www.appannie.com/apps/google-play/app/com.indiatv.news/keywords'
p443
aS'https://www.appannie.com/apps/google-play/app/jp.gocro.smartnews.android/keywords'
p444
aS'https://www.appannie.com/apps/google-play/app/com.ritekno.jambiupdate/keywords'
p445
aS'https://www.appannie.com/apps/google-play/app/com.tawadu.gangstar/keywords'
p446
aS'https://www.appannie.com/apps/google-play/app/com.pakardigital.infomotogp/keywords'
p447
aS'https://www.appannie.com/apps/google-play/app/com.berita.jawa.tengah.aubcsogrke_jhzrojiw/keywords'
p448
aS'https://www.appannie.com/apps/google-play/app/com.bps.ywtp/keywords'
p449
aS'https://www.appannie.com/apps/google-play/app/radar.surabaya/keywords'
p450
aS'https://www.appannie.com/apps/google-play/app/com.giago.trends.free/keywords'
p451
aS'https://www.appannie.com/apps/google-play/app/com.creative2apps.resepramen/keywords'
p452
aS'https://www.appannie.com/apps/google-play/app/com.Rumusmatematika.singdroid/keywords'
p453
aS'https://www.appannie.com/apps/google-play/app/com.detik.viva.tribun.news/keywords'
p454
aS'https://www.appannie.com/apps/google-play/app/com.berita.sepak.bola.ok/keywords'
p455
aS'https://www.appannie.com/apps/google-play/app/com.radarbantencoid.mobileapp.radarbantencoid/keywords'
p456
aS'https://www.appannie.com/apps/google-play/app/org.tokoonlineindonesia.apps.beritaotomotifindonesia/keywords'
p457
aS'https://www.appannie.com/apps/google-play/app/com.heirloom.sukipli/keywords'
p458
aS'https://www.appannie.com/apps/google-play/app/com.Pantundewasa.singdroid/keywords'
p459
aS'https://www.appannie.com/apps/google-play/app/com.indiatv.livetv/keywords'
p460
aS'https://www.appannie.com/apps/google-play/app/com.himatemiauntirta.app.himatemia_portal/keywords'
p461
aS'https://www.appannie.com/apps/google-play/app/com.cerpencinta2016.singdroid/keywords'
p462
aS'https://www.appannie.com/apps/google-play/app/com.berita.lampung.info/keywords'
p463
aS'https://www.appannie.com/apps/google-play/app/com.Biografisaqj.singdroid/keywords'
p464
aS'https://www.appannie.com/apps/google-play/app/com.InfoKyai/keywords'
p465
aS'https://www.appannie.com/apps/google-play/app/com.jitunews.launcher/keywords'
p466
aS'https://www.appannie.com/apps/google-play/app/com.codelabs.elshinta/keywords'
p467
aS'https://www.appannie.com/apps/google-play/app/com.shortir/keywords'
p468
aS'https://www.appannie.com/apps/google-play/app/radar.banyuwangi/keywords'
p469
aS'https://www.appannie.com/apps/google-play/app/com.berita.rotendao/keywords'
p470
aS'https://www.appannie.com/apps/google-play/app/com.tencent.news/keywords'
p471
aS'https://www.appannie.com/apps/google-play/app/com.economist.darwin/keywords'
p472
aS'https://www.appannie.com/apps/google-play/app/com.androidcentral.app/keywords'
p473
aS'https://www.appannie.com/apps/google-play/app/com.suaraislam.online/keywords'
p474
aS'https://www.appannie.com/apps/google-play/app/com.berita.sumut/keywords'
p475
aS'https://www.appannie.com/apps/google-play/app/com.kisahislami.singdroid/keywords'
p476
aS'https://www.appannie.com/apps/google-play/app/china.latest.news/keywords'
p477
aS'https://www.appannie.com/apps/google-play/app/jurnalintelijen.jurnalintelijen/keywords'
p478
aS'https://www.appannie.com/apps/google-play/app/id.androbroneo.undangundangkeperawatan/keywords'
p479
aS'https://www.appannie.com/apps/google-play/app/com.panduanbudidayaikanlele.singdroid/keywords'
p480
aS'https://www.appannie.com/apps/google-play/app/com.panduanbudidayaayampetelur.singdroid/keywords'
p481
aS'https://www.appannie.com/apps/google-play/app/ai.agusibrahim.fbhxk/keywords'
p482
aS'https://www.appannie.com/apps/google-play/app/id.bigio.ipj/keywords'
p483
aS'https://www.appannie.com/apps/google-play/app/com.umpanmancingikanairtawar.singdroid/keywords'
p484
aS'https://www.appannie.com/apps/google-play/app/com.infotechnodev.menpan.sample/keywords'
p485
aS'https://www.appannie.com/apps/google-play/app/com.id.inilahcom/keywords'
p486
aS'https://www.appannie.com/apps/google-play/app/com.panduanziarahkubur.singdroid/keywords'
p487
aS'https://www.appannie.com/apps/google-play/app/com.rubenmayayo.reddit/keywords'
p488
aS'https://www.appannie.com/apps/google-play/app/com.intecons.psd/keywords'
p489
aS'https://www.appannie.com/apps/google-play/app/id.gits.themarketeers/keywords'
p490
aS'https://www.appannie.com/apps/google-play/app/swv.eccugm.careernews/keywords'
p491
aS'https://www.appannie.com/apps/google-play/app/com.chandrawahyudi.balipost/keywords'
p492
aS'https://www.appannie.com/apps/google-play/app/com.berita.indonesia.terkini/keywords'
p493
aS'https://www.appannie.com/apps/google-play/app/com.poponews.global/keywords'
p494
aS'https://www.appannie.com/apps/google-play/app/com.wOPPONOID_4360701/keywords'
p495
aS'https://www.appannie.com/apps/google-play/app/appinventor.ai_developerandroid99.Satu_Berita/keywords'
p496
aS'https://www.appannie.com/apps/google-play/app/com.berita.jabar/keywords'
p497
aS'https://www.appannie.com/apps/google-play/app/com.uc.iflow/keywords'
p498
aS'https://www.appannie.com/apps/google-play/app/com.live.ery.tvonlineindonesia/keywords'
p499
aS'https://www.appannie.com/apps/google-play/app/id.co.babe/keywords'
p500
aS'https://www.appannie.com/apps/google-play/app/com.jakarta.baca/keywords'
p501
aS'https://www.appannie.com/apps/google-play/app/com.twitter.android/keywords'
p502
aS'https://www.appannie.com/apps/google-play/app/com.merahputih.kurio/keywords'
p503
aS'https://www.appannie.com/apps/google-play/app/org.detikcom.rss/keywords'
p504
aS'https://www.appannie.com/apps/google-play/app/com.engloryintertech.caping/keywords'
p505
aS'https://www.appannie.com/apps/google-play/app/com.ss.android.article.master.id/keywords'
p506
aS'https://www.appannie.com/apps/google-play/app/com.woi.liputan6.android/keywords'
p507
aS'https://www.appannie.com/apps/google-play/app/com.inveno.mata/keywords'
p508
aS'https://www.appannie.com/apps/google-play/app/com.ertanto.kompas.official/keywords'
p509
aS'https://www.appannie.com/apps/google-play/app/com.google.android.apps.magazines/keywords'
p510
aS'https://www.appannie.com/apps/google-play/app/com.cnn.indonesia/keywords'
p511
aS'https://www.appannie.com/apps/google-play/app/com.amzcorp.cpgojek/keywords'
p512
aS'https://www.appannie.com/apps/google-play/app/com.jalantikus.app/keywords'
p513
aS'https://www.appannie.com/apps/google-play/app/com.bolabolatelur.gorengalun/keywords'
p514
aS'https://www.appannie.com/apps/google-play/app/com.lebahbiru.oriflamekatalog/keywords'
p515
aS'https://www.appannie.com/apps/google-play/app/id.co.viva.news.app/keywords'
p516
aS'https://www.appannie.com/apps/google-play/app/com.kumparan/keywords'
p517
aS'https://www.appannie.com/apps/google-play/app/com.allmyelegance.GlitterWallpapers/keywords'
p518
aS'https://www.appannie.com/apps/google-play/app/yimm.e_catalogue/keywords'
p519
aS'https://www.appannie.com/apps/google-play/app/samsungupdate.com/keywords'
p520
aS'https://www.appannie.com/apps/google-play/app/mobile.android.tribun/keywords'
p521
aS'https://www.appannie.com/apps/google-play/app/com.vbwebdesigner.BeritaAhok/keywords'
p522
aS'https://www.appannie.com/apps/google-play/app/com.aonhub.mr/keywords'
p523
aS'https://www.appannie.com/apps/google-play/app/com.algostudio.metrotv/keywords'
p524
aS'https://www.appannie.com/apps/google-play/app/com.republika.mobile/keywords'
p525
aS'https://www.appannie.com/apps/google-play/app/ge.lanmaster.oriflamecatalogue/keywords'
p526
aS'https://www.appannie.com/apps/google-play/app/com.indomedia.tabpulsa/keywords'
p527
aS'https://www.appannie.com/apps/google-play/app/jawapos.newsreader/keywords'
p528
aS'https://www.appannie.com/apps/google-play/app/com.bosguide.guideresidentevil4/keywords'
p529
aS'https://www.appannie.com/apps/google-play/app/com.mhzstudio.bola.sepakbola.jadwal.berita.news.highlight/keywords'
p530
aS'https://www.appannie.com/apps/google-play/app/com.endrocpl.cpl.beritabaca/keywords'
p531
aS'https://www.appannie.com/apps/google-play/app/com.AbySyaif.HadistShohihBukhori/keywords'
p532
aS'https://www.appannie.com/apps/google-play/app/info.berita.islam/keywords'
p533
aS'https://www.appannie.com/apps/google-play/app/com.appsfoundry.scoop/keywords'
p534
aS'https://www.appannie.com/apps/google-play/app/com.google.android.apps.genie.geniewidget/keywords'
p535
aS'https://www.appannie.com/apps/google-play/app/flipboard.app/keywords'
p536
aS'https://www.appannie.com/apps/google-play/app/com.islampos.paket/keywords'
p537
aS'https://www.appannie.com/apps/google-play/app/com.ernesiagroups.ayokerja/keywords'
p538
aS'https://www.appannie.com/apps/google-play/app/fna.goodnews.fastnews/keywords'
p539
aS'https://www.appannie.com/apps/google-play/app/com.nivelastudio.AnekaResepKueSpesial/keywords'
p540
aS'https://www.appannie.com/apps/google-play/app/bbc.mobile.news.ww/keywords'
p541
aS'https://www.appannie.com/apps/google-play/app/swv.ecc.ugm2/keywords'
p542
aS'https://www.appannie.com/apps/google-play/app/com.reddit.frontpage/keywords'
p543
aS'https://www.appannie.com/apps/google-play/app/id.go.tangerangkota.tangeranglive/keywords'
p544
aS'https://www.appannie.com/apps/google-play/app/com.maskeralamiperawatanwajah.singdroid/keywords'
p545
aS'https://www.appannie.com/apps/google-play/app/linktone.okezone.android/keywords'
p546
aS'https://www.appannie.com/apps/google-play/app/com.mdhugoltech.rrimobile/keywords'
p547
aS'https://www.appannie.com/apps/google-play/app/flash.mobile.news.valueb/keywords'
p548
aS'https://www.appannie.com/apps/google-play/app/technology.mainspring.babenews/keywords'
p549
aS'https://www.appannie.com/apps/google-play/app/com.droidlime.apps/keywords'
p550
aS'https://www.appannie.com/apps/google-play/app/alldictdict.alldict.iden/keywords'
p551
aS'https://www.appannie.com/apps/google-play/app/com.primbonterlengkap.singdroid/keywords'
p552
aS'https://www.appannie.com/apps/google-play/app/com.cerpencintasedih.singdroid/keywords'
p553
aS'https://www.appannie.com/apps/google-play/app/com.pantunlucu.singdroid/keywords'
p554
aS'https://www.appannie.com/apps/google-play/app/com.cnn.mobile.android.phone/keywords'
p555
aS'https://www.appannie.com/apps/google-play/app/com.mobilesrepublic.appy/keywords'
p556
aS'https://www.appannie.com/apps/google-play/app/com.sindonews.android/keywords'
p557
aS'https://www.appannie.com/apps/google-play/app/com.jobs.id/keywords'
p558
aS'https://www.appannie.com/apps/google-play/app/com.allmyelegance.WallpapersphoneLockScreen/keywords'
p559
aS'https://www.appannie.com/apps/google-play/app/netmediatama.app.cj/keywords'
p560
aS'https://www.appannie.com/apps/google-play/app/com.mnews.detik/keywords'
p561
aS'https://www.appannie.com/apps/google-play/app/com.rizqinetdev.serverfhxcnew/keywords'
p562
aS'https://www.appannie.com/apps/google-play/app/com.inshomedia.sirahnabawi/keywords'
p563
aS'https://www.appannie.com/apps/google-play/app/com.gbu.app.merdeka/keywords'
p564
aS'https://www.appannie.com/apps/google-play/app/kiwiGuide.gta.sandras/keywords'
p565
aS'https://www.appannie.com/apps/google-play/app/com.berita.islam.dunia/keywords'
p566
aS'https://www.appannie.com/apps/google-play/app/com.akhyar.tv/keywords'
p567
aS'https://www.appannie.com/apps/google-play/app/aongratis.joglo.app.aongratis/keywords'
p568
aS'https://www.appannie.com/apps/google-play/app/com.mp3.livetvpakandworld/keywords'
p569
aS'https://www.appannie.com/apps/google-play/app/com.berita.islam.terkini/keywords'
p570
aS'https://www.appannie.com/apps/google-play/app/com.CerpenHororTerseram.singdroid/keywords'
p571
aS'https://www.appannie.com/apps/google-play/app/com.tempo.tempomedia/keywords'
p572
aS'https://www.appannie.com/apps/google-play/app/com.apps.foundry.tempo/keywords'
p573
aS'https://www.appannie.com/apps/google-play/app/com.developer_id.lokerdepnaker/keywords'
p574
aS'https://www.appannie.com/apps/google-play/app/de.id.wa/keywords'
p575
aS'https://www.appannie.com/apps/google-play/app/com.aladroo.fpi/keywords'
p576
aS'https://www.appannie.com/apps/google-play/app/com.katamutiaranabidansahabat.singdroid/keywords'
p577
aS'https://www.appannie.com/apps/google-play/app/com.jurnalotaku.joi/keywords'
p578
aS'https://www.appannie.com/apps/google-play/app/com.interistiindonesia.app/keywords'
p579
aS'https://www.appannie.com/apps/google-play/app/com.CerpenCIntaRemaja.singdroid/keywords'
p580
aS'https://www.appannie.com/apps/google-play/app/id.makery.seword/keywords'
p581
aS'https://www.appannie.com/apps/google-play/app/com.app.blackmart/keywords'
p582
aS'https://www.appannie.com/apps/google-play/app/com.miui.forums/keywords'
p583
aS'https://www.appannie.com/apps/google-play/app/com.akutresno.kumulanniatsholatlengkap/keywords'
p584
aS'https://www.appannie.com/apps/google-play/app/com.mediaislam.indonesia/keywords'
p585
aS'https://www.appannie.com/apps/google-play/app/com.mnews.tempo/keywords'
p586
aS'https://www.appannie.com/apps/google-play/app/com.lowongan.kerja.indonesia.update/keywords'
p587
aS'https://www.appannie.com/apps/google-play/app/com.nexusupdate.android/keywords'
p588
aS'https://www.appannie.com/apps/google-play/app/com.beritasatu/keywords'
p589
aS'https://www.appannie.com/apps/google-play/app/mobile.android.tribun.daerah.aceh/keywords'
p590
aS'https://www.appannie.com/apps/google-play/app/com.lebahbiru.oriflamecatalog/keywords'
p591
aS'https://www.appannie.com/apps/google-play/app/com.ideashower.readitlater.pro/keywords'
p592
aS'https://www.appannie.com/apps/google-play/app/com.autonetmagz/keywords'
p593
aS'https://www.appannie.com/apps/google-play/app/com.pakardigital.maungbandung/keywords'
p594
aS'https://www.appannie.com/apps/google-play/app/com.newspaperdirect.jakartapost.android/keywords'
p595
aS'https://www.appannie.com/apps/google-play/app/com.bantenid/keywords'
p596
aS'https://www.appannie.com/apps/google-play/app/com.herdy.resepkuelebaran/keywords'
p597
aS'https://www.appannie.com/apps/google-play/app/com.flash.global.news/keywords'
p598
aS'https://www.appannie.com/apps/google-play/app/vn.com.temnplerun1.tkhtutorial/keywords'
p599
aS'https://www.appannie.com/apps/google-play/app/com.medium.reader/keywords'
p600
aS'https://www.appannie.com/apps/google-play/app/com.berita.ahok/keywords'
p601
aS'https://www.appannie.com/apps/google-play/app/co.kontan/keywords'
p602
aS'https://www.appannie.com/apps/google-play/app/com.villandroid.perkembanganJanin/keywords'
p603
aS'https://www.appannie.com/apps/google-play/app/com.wsuarasurabayanet_4131485/keywords'
p604
aS'https://www.appannie.com/apps/google-play/app/id.co.nationalgeographic/keywords'
p605
aS'https://www.appannie.com/apps/google-play/app/com.tawadu.awewe/keywords'
p606
aS'https://www.appannie.com/apps/google-play/app/com.tv.hot.tvindonesiaonline/keywords'
p607
aS'https://www.appannie.com/apps/google-play/app/com.magazinecloner.shopkinsmag/keywords'
p608
aS'https://www.appannie.com/apps/google-play/app/com.issuu.android.app/keywords'
p609
aS'https://www.appannie.com/apps/google-play/app/com.berita.bola.terupdate.ok/keywords'
p610
aS'https://www.appannie.com/apps/google-play/app/com.katamutiaracintapilihan.singdroid/keywords'
p611
aS'https://www.appannie.com/apps/google-play/app/com.doubled.hypermart/keywords'
p612
aS'https://www.appannie.com/apps/google-play/app/com.berita.kpop/keywords'
p613
aS'https://www.appannie.com/apps/google-play/app/com.antaranews.app/keywords'
p614
aS'https://www.appannie.com/apps/google-play/app/org.infotekno/keywords'
p615
aS'https://www.appannie.com/apps/google-play/app/com.wPAJAKKENDARAANJAMBI/keywords'
p616
aS'https://www.appannie.com/apps/google-play/app/com.detik.merdeka.kompas.news/keywords'
p617
aS'https://www.appannie.com/apps/google-play/app/com.creativecodestudio.digipress.digitalkoransindo/keywords'
p618
aS'https://www.appannie.com/apps/google-play/app/com.humorsufi.singdroid/keywords'
p619
aS'https://www.appannie.com/apps/google-play/app/bisnis.com.official/keywords'
p620
aS'https://www.appannie.com/apps/google-play/app/id.techinasia.ct/keywords'
p621
aS'https://www.appannie.com/apps/google-play/app/com.intelliappstudio.majalahpulsa/keywords'
p622
aS'https://www.appannie.com/apps/google-play/app/appinventor.ai_aliminsyamsuddin.WSI/keywords'
p623
aS'https://www.appannie.com/apps/google-play/app/com.rayuangombal.singdroid/keywords'
p624
aS'https://www.appannie.com/apps/google-play/app/buqu.motorplus.android/keywords'
p625
aS'https://www.appannie.com/apps/google-play/app/com.odp.ssfm/keywords'
p626
aS'https://www.appannie.com/apps/google-play/app/com.kumpulan.berita/keywords'
p627
aS'https://www.appannie.com/apps/google-play/app/com.dailymail.online/keywords'
p628
aS'https://www.appannie.com/apps/google-play/app/com.jadual.gp/keywords'
p629
aS'https://www.appannie.com/apps/google-play/app/jrlapo.metal.slug/keywords'
p630
aS'https://www.appannie.com/apps/google-play/app/mobile.android.tribun.daerah.makassar/keywords'
p631
aS'https://www.appannie.com/apps/google-play/app/mobile.android.tribun.daerah.bali/keywords'
p632
aS'https://www.appannie.com/apps/google-play/app/com.indonesia.hotnews/keywords'
p633
aS'https://www.appannie.com/apps/google-play/app/com.guardian/keywords'
p634
aS'https://www.appannie.com/apps/google-play/app/panditfootball.com.panditfootball/keywords'
p635
aS'https://www.appannie.com/apps/google-play/app/com.dispenad.tniad/keywords'
p636
aS'https://www.appannie.com/apps/google-play/app/com.appsfoundry.scoopwl.id.popular/keywords'
p637
aS'https://www.appannie.com/apps/google-play/app/com.outstanding/keywords'
p638
aS'https://www.appannie.com/apps/google-play/app/com.ceritahumorlucu.singdroid/keywords'
p639
aS'https://www.appannie.com/apps/google-play/app/com.muhammadiyah.app/keywords'
p640
aS'https://www.appannie.com/apps/google-play/app/com.hipwee.mobile/keywords'
p641
aS'https://www.appannie.com/apps/google-play/app/com.mediaindonesia.mediastore/keywords'
p642
aS'https://www.appannie.com/apps/google-play/app/com.gulbers.beter/keywords'
p643
aS'https://www.appannie.com/apps/google-play/app/com.berita.saham.dan.forex/keywords'
p644
aS'https://www.appannie.com/apps/google-play/app/id.suaramuhammadiyah.newsapp/keywords'
p645
aS'https://www.appannie.com/apps/google-play/app/com.ml.soompi/keywords'
p646
aS'https://www.appannie.com/apps/google-play/app/com.pencaksilat.singdroid/keywords'
p647
aS'https://www.appannie.com/apps/google-play/app/jpnn.newsreader/keywords'
p648
aS'https://www.appannie.com/apps/google-play/app/com.renungan.rohani.harian.blogpress/keywords'
p649
aS'https://www.appannie.com/apps/google-play/app/com.studio.anisa.semuaberita/keywords'
p650
aS'https://www.appannie.com/apps/google-play/app/mobile.android.tribun.daerah.pontianak/keywords'
p651
aS'https://www.appannie.com/apps/google-play/app/mobile.android.tribun.daerah.medan/keywords'
p652
aS'https://www.appannie.com/apps/google-play/app/com.kisahdajjal.singdroid/keywords'
p653
aS'https://www.appannie.com/apps/google-play/app/com.goldenmus.pes17.proevolution.soccer2016.pesgame/keywords'
p654
aS'https://www.appannie.com/apps/google-play/app/com.kitabfiqihnikah.singdroid/keywords'
p655
aS'https://www.appannie.com/apps/google-play/app/com.tv.islam/keywords'
p656
aS'https://www.appannie.com/apps/google-play/app/com.mta.android/keywords'
p657
aS'https://www.appannie.com/apps/google-play/app/com.Fikihbisnisdanriba.singdroid/keywords'
p658
aS'https://www.appannie.com/apps/google-play/app/mkri.go.id/keywords'
p659
aS'https://www.appannie.com/apps/google-play/app/mobile.android.tribun.daerah.banjarmasin/keywords'
p660
aS'https://www.appannie.com/apps/google-play/app/the.viral.shots/keywords'
p661
aS'https://www.appannie.com/apps/google-play/app/com.detik.detik20/keywords'
p662
aS'https://www.appannie.com/apps/google-play/app/com.amzcorp.bpjs/keywords'
p663
aS'https://www.appannie.com/apps/google-play/app/mobile.android.tribun.daerah.bangka/keywords'
p664
aS'https://www.appannie.com/apps/google-play/app/com.find.your.jobs/keywords'
p665
aS'https://www.appannie.com/apps/google-play/app/id.artefact.hidayatullah/keywords'
p666
aS'https://www.appannie.com/apps/google-play/app/com.bambuna.podcastaddict/keywords'
p667
aS'https://www.appannie.com/apps/google-play/app/com.buzzfeed.android/keywords'
p668
aS'https://www.appannie.com/apps/google-play/app/sigap.koperasi.com.sigapkoperasi/keywords'
p669
aS'https://www.appannie.com/apps/google-play/app/com.info.persija.oprekandroid/keywords'
p670
aS'https://www.appannie.com/apps/google-play/app/com.ionicframework.kintakun/keywords'
p671
aS'https://www.appannie.com/apps/google-play/app/com.berita.motogp.terbaru/keywords'
p672
aS'https://www.appannie.com/apps/google-play/app/glenn.e_catalogue/keywords'
p673
aS'https://www.appannie.com/apps/google-play/app/com.nytimes.android/keywords'
p674
aS'https://www.appannie.com/apps/google-play/app/mobile.android.tribun.daerah.jabar/keywords'
p675
aS'https://www.appannie.com/apps/google-play/app/com.chripcastmedia.beritaindonesia/keywords'
p676
aS'https://www.appannie.com/apps/google-play/app/com.iart.chromecastapps/keywords'
p677
aS'https://www.appannie.com/apps/google-play/app/com.idntimes.idntimes/keywords'
p678
aS'https://www.appannie.com/apps/google-play/app/com.misterikhidir.singdroid/keywords'
p679
aS'https://www.appannie.com/apps/google-play/app/com.creative2apps.resepbolukukus/keywords'
p680
aS'https://www.appannie.com/apps/google-play/app/id.tirto/keywords'
p681
aS'https://www.appannie.com/apps/google-play/app/team.vc.kompaskiosk/keywords'
p682
aS'https://www.appannie.com/apps/google-play/app/com.mumet.bursakerjabumn/keywords'
p683
aS'https://www.appannie.com/apps/google-play/app/com.berita.persija.kemayoran/keywords'
p684
aS'https://www.appannie.com/apps/google-play/app/com.berita.otomotif.info/keywords'
p685
aS'https://www.appannie.com/apps/google-play/app/com.adelinolobao.indonesianews/keywords'
p686
aS'https://www.appannie.com/apps/google-play/app/mobile.android.tribun.daerah.jogja/keywords'
p687
aS'https://www.appannie.com/apps/google-play/app/com.cosmic.sonus.news.india.hindi/keywords'
p688
aS'https://www.appannie.com/apps/google-play/app/com.berita.dunia.world/keywords'
p689
aS'https://www.appannie.com/apps/google-play/app/com.gonews.goriau/keywords'
p690
aS'https://www.appannie.com/apps/google-play/app/com.zinio.mobile.android.reader/keywords'
p691
aS'https://www.appannie.com/apps/google-play/app/fm.player/keywords'
p692
aS'https://www.appannie.com/apps/google-play/app/com.hypebeast.editorial/keywords'
p693
aS'https://www.appannie.com/apps/google-play/app/com.podcast.podcasts/keywords'
p694
aS'https://www.appannie.com/apps/google-play/app/com.intelliappstudio.beritaselebritis/keywords'
p695
aS'https://www.appannie.com/apps/google-play/app/flipboard.boxer.app/keywords'
p696
aS'https://www.appannie.com/apps/google-play/app/com.tajwid.singdroid/keywords'
p697
aS'https://www.appannie.com/apps/google-play/app/com.beritabola.beritabola/keywords'
p698
aS'https://www.appannie.com/apps/google-play/app/com.lwl.berita/keywords'
p699
aS'https://www.appannie.com/apps/google-play/app/com.siyarox.indonesianewspapers/keywords'
p700
aS'https://www.appannie.com/apps/google-play/app/com.dennysiregar.app/keywords'
p701
aS'https://www.appannie.com/apps/google-play/app/id.go.lapan.lapanhotspot/keywords'
p702
aS'https://www.appannie.com/apps/google-play/app/com.slo2.bcm2.newguideangrybirdtransformers/keywords'
p703
aS'https://www.appannie.com/apps/google-play/app/in.AajTak.headlines/keywords'
p704
aS'https://www.appannie.com/apps/google-play/app/com.appsfoundry.scoopwl.id.tribun/keywords'
p705
aS'https://www.appannie.com/apps/google-play/app/com.rekrutmen.kerja/keywords'
p706
aS'https://www.appannie.com/apps/google-play/app/kr.jogja.com/keywords'
p707
aS'https://www.appannie.com/apps/google-play/app/com.tawadu.hero111/keywords'
p708
aS'https://www.appannie.com/apps/google-play/app/com.project.score1/keywords'
p709
aS'https://www.appannie.com/apps/google-play/app/codepolitan.lite.newreaders/keywords'
p710
aS'https://www.appannie.com/apps/google-play/app/mobile.android.tribun.daerah.jateng/keywords'
p711
aS'https://www.appannie.com/apps/google-play/app/com.berita.islam.indo/keywords'
p712
aS'https://www.appannie.com/apps/google-play/app/com.app.analisadaily/keywords'
p713
aS'https://www.appannie.com/apps/google-play/app/com.thomsonreuters.reuters/keywords'
p714
aS'https://www.appannie.com/apps/google-play/app/com.nuskinenterprises.nuskin/keywords'
p715
aS'https://www.appannie.com/apps/google-play/app/com.guide.join.pes2017.tips/keywords'
p716
aS'https://www.appannie.com/apps/google-play/app/com.karirmedan/keywords'
p717
aS'https://www.appannie.com/apps/google-play/app/com.poskotanews.app/keywords'
p718
aS'https://www.appannie.com/apps/google-play/app/com.eterno/keywords'
p719
aS'https://www.appannie.com/apps/google-play/app/com.sony.nfx.app.sfrc/keywords'
p720
aS'https://www.appannie.com/apps/google-play/app/buqu.otomotif.android/keywords'
p721
aS'https://www.appannie.com/apps/google-play/app/air.com.launchday.mobile.plantsvszombies/keywords'
p722
aS'https://www.appannie.com/apps/google-play/app/com.yesi.yopi.yesi/keywords'
p723
aS'https://www.appannie.com/apps/google-play/app/com.ak.ta.dainikbhaskar.activity/keywords'
p724
aS'https://www.appannie.com/apps/google-play/app/com.berita.bisnis.info/keywords'
p725
aS'https://www.appannie.com/apps/google-play/app/jp.m78.shuwapp/keywords'
p726
aS'https://www.appannie.com/apps/google-play/app/com.devhd.feedly/keywords'
p727
aS'https://www.appannie.com/apps/google-play/app/com.knx.jakartapost/keywords'
p728
aS'https://www.appannie.com/apps/google-play/app/com.extrainteger.maiyahapps/keywords'
p729
aS'https://www.appannie.com/apps/google-play/app/com.PanduanBudidayaikancupang.singdroid/keywords'
p730
aS'https://www.appannie.com/apps/google-play/app/com.alrais.cocfhxserver/keywords'
p731
aS'https://www.appannie.com/apps/google-play/app/com.microsoft.amp.apps.bingnews/keywords'
p732
aS'https://www.appannie.com/apps/google-play/app/com.rumahminimalis2016.singdroid/keywords'
p733
aS'https://www.appannie.com/apps/google-play/app/gov.bbg.voa/keywords'
p734
aS'https://www.appannie.com/apps/google-play/app/tv.cchan.harajuku/keywords'
p735
aS'https://www.appannie.com/apps/google-play/app/com.foxnews.android/keywords'
p736
aS'https://www.appannie.com/apps/google-play/app/com.nip.cennoticias/keywords'
p737
aS'https://www.appannie.com/apps/google-play/app/com.lowongan.kerja/keywords'
p738
aS'https://www.appannie.com/apps/google-play/app/asia.cyberlabs.duniajilbab/keywords'
p739
aS'https://www.appannie.com/apps/google-play/app/com.TheresiaYang1.KalenderLiturgi2017/keywords'
p740
aS'https://www.appannie.com/apps/google-play/app/com.griffincommunications.droid.news9/keywords'
p741
aS'https://www.appannie.com/apps/google-play/app/com.project.madanitv/keywords'
p742
aS'https://www.appannie.com/apps/google-play/app/com.raka.tinggaldirumahhantu/keywords'
p743
aS'https://www.appannie.com/apps/google-play/app/com.fajaronline.fajaronline/keywords'
p744
aS'https://www.appannie.com/apps/google-play/app/com.maskeralamiperawatanrambut.singdroid/keywords'
p745
aS'https://www.appannie.com/apps/google-play/app/com.berita.sulsel/keywords'
p746
aS'https://www.appannie.com/apps/google-play/app/com.crushdev.hipwee/keywords'
p747
aS'https://www.appannie.com/apps/google-play/app/com.magazinecloner.bbmlive/keywords'
p748
aS'https://www.appannie.com/apps/google-play/app/com.nador.yallahShoot/keywords'
p749
aS'https://www.appannie.com/apps/google-play/app/com.wmajalahtrubus11/keywords'
p750
aS'https://www.appannie.com/apps/google-play/app/com.ww7uplagi/keywords'
p751
aS'https://www.appannie.com/apps/google-play/app/com.belajar.saham.dan.forex/keywords'
p752
aS'https://www.appannie.com/apps/google-play/app/com.KumpulanHadis.singdroid/keywords'
p753
aS'https://www.appannie.com/apps/google-play/app/appinventor.ai_Priyo53.saberpungli/keywords'
p754
aS'https://www.appannie.com/apps/google-play/app/com.winit.starnews.hin/keywords'
p755
aS'https://www.appannie.com/apps/google-play/app/pnp.id.iniberita/keywords'
p756
aS'https://www.appannie.com/apps/google-play/app/id.web.jadwalevent.jadwaljobfair/keywords'
p757
aS'https://www.appannie.com/apps/google-play/app/air.com.screenpapermedia.basic.mobile.launchday.callofduty/keywords'
p758
aS'https://www.appannie.com/apps/google-play/app/news.cari.app/keywords'
p759
aS'https://www.appannie.com/apps/google-play/app/mobile.android.tribun.daerah.lampung/keywords'
p760
aS'https://www.appannie.com/apps/google-play/app/com.dci.magzter/keywords'
p761
aS'https://www.appannie.com/apps/google-play/app/mobile.android.tribun.daerah.kaltim/keywords'
p762
aS'https://www.appannie.com/apps/google-play/app/com.walisongo.singdroid/keywords'
p763
aS'https://www.appannie.com/apps/google-play/app/com.kumpulan.aplikasi.game.berhadiah/keywords'
p764
aS'https://www.appannie.com/apps/google-play/app/com.yahoo.mobile.client.android.atom/keywords'
p765
aS'https://www.appannie.com/apps/google-play/app/com.is.beritaislam/keywords'
p766
aS'https://www.appannie.com/apps/google-play/app/com.a83146760554baf1cdae0499a.a99394247a/keywords'
p767
aS'https://www.appannie.com/apps/google-play/app/com.zeenews.hindinews/keywords'
p768
aS'https://www.appannie.com/apps/google-play/app/com.nontontvindonesia.apps.beritakoranindonesia/keywords'
p769
aS'https://www.appannie.com/apps/google-play/app/com.primbonjawa.anakkupang/keywords'
p770
aS'https://www.appannie.com/apps/google-play/app/com.androidauthority.app/keywords'
p771
aS'https://www.appannie.com/apps/google-play/app/net.develmedia.jafracatalog/keywords'
p772
aS'https://www.appannie.com/apps/google-play/app/com.intelliappstudio.beritateknologi/keywords'
p773
aS'https://www.appannie.com/apps/google-play/app/com.androidisme.etikasuamiistri.ETIKASUAMIISTRI/keywords'
p774
aS'https://www.appannie.com/apps/google-play/app/com.monzonito.earthquakealerts/keywords'
p775
aS'https://www.appannie.com/apps/google-play/app/com.puisicintainspiratif.singdroid/keywords'
p776
aS'https://www.appannie.com/apps/google-play/app/com.kitabbidah.singdroid/keywords'
p777
aS'https://www.appannie.com/apps/google-play/app/com.koragoal.serverhome/keywords'
p778
aS'https://www.appannie.com/apps/google-play/app/com.indonesia.news/keywords'
p779
aS'https://www.appannie.com/apps/google-play/app/radarlampung.co.id.radarlampung/keywords'
p780
aS'https://www.appannie.com/apps/google-play/app/wsj.reader_sp/keywords'
p781
aS'https://www.appannie.com/apps/google-play/app/com.dongenganakpopuler.singdroid/keywords'
p782
aS'https://www.appannie.com/apps/google-play/app/net.aljazeera.english/keywords'
p783
aS'https://www.appannie.com/apps/google-play/app/air.com.launchday.mobile.sonicboom/keywords'
p784
aS'https://www.appannie.com/apps/google-play/app/m.noom.vierdriedrie/keywords'
p785
aS'https://www.appannie.com/apps/google-play/app/com.techinasia.ct/keywords'
p786
aS'https://www.appannie.com/apps/google-play/app/berita.persijajakarta/keywords'
p787
aS'https://www.appannie.com/apps/google-play/app/com.svr.ecat2/keywords'
p788
aS'https://www.appannie.com/apps/google-play/app/com.newspaperdirect.pressreader.android/keywords'
p789
aS'https://www.appannie.com/apps/google-play/app/com.idmedia.android.newsportal/keywords'
p790
aS'https://www.appannie.com/apps/google-play/app/net.derohimat.cekhaji/keywords'
p791
aS'https://www.appannie.com/apps/google-play/app/com.wBeritaSTKIP_4645606/keywords'
p792
aS'https://www.appannie.com/apps/google-play/app/com.zaman.akhir/keywords'
p793
aS'https://www.appannie.com/apps/google-play/app/com.archstudio.infoberitaalutsistatni/keywords'
p794
aS'https://www.appannie.com/apps/google-play/app/com.wWebsiteTentaraNasionalIndonesia/keywords'
p795
aS'https://www.appannie.com/apps/google-play/app/com.beritaumatislam.beritaumatislam/keywords'
p796
aS'https://www.appannie.com/apps/google-play/app/netmediatama.netz.netz/keywords'
p797
aS'https://www.appannie.com/apps/google-play/app/br.com.revistaviu/keywords'
p798
aS'https://www.appannie.com/apps/google-play/app/com.info.lowongankerja/keywords'
p799
aS'https://www.appannie.com/apps/google-play/app/pr.nip.cennoticias/keywords'
p800
aS'https://www.appannie.com/apps/google-play/app/mobile.android.tribun.daerah.batam/keywords'
p801
aS'https://www.appannie.com/apps/google-play/app/com.btmnl61586.kurayubidadariliriklagu/keywords'
p802
aS'https://www.appannie.com/apps/google-play/app/it.pinenuts.rassegnastampa/keywords'
p803
aS'https://www.appannie.com/apps/google-play/app/com.dendroid.teknikbudidayahidroponik/keywords'
p804
aS'https://www.appannie.com/apps/google-play/app/com.piyungan.online/keywords'
p805
aS'https://www.appannie.com/apps/google-play/app/id.co.sm.sminfo/keywords'
p806
aS'https://www.appannie.com/apps/google-play/app/com.andromo.dev231870.app230480/keywords'
p807
aS'https://www.appannie.com/apps/google-play/app/com.wlampostco64/keywords'
p808
aS'https://www.appannie.com/apps/google-play/app/com.namabayilakiistimewa.mbahodi/keywords'
p809
aS'https://www.appannie.com/apps/google-play/app/com.idnfinancials.android/keywords'
p810
aS'https://www.appannie.com/apps/google-play/app/com.cerpenislamiberhikmah.singdroid/keywords'
p811
aS'https://www.appannie.com/apps/google-play/app/com.wBERITAPNSCOM/keywords'
p812
aS'https://www.appannie.com/apps/google-play/app/com.berita.sumbar.zgazfnzreagdhnialrdaq/keywords'
p813
aS'https://www.appannie.com/apps/google-play/app/com.pakarinvestasi/keywords'
p814
aS'https://www.appannie.com/apps/google-play/app/com.wartaekonomi/keywords'
p815
aS'https://www.appannie.com/apps/google-play/app/com.kabar.makkah/keywords'
p816
aS'https://www.appannie.com/apps/google-play/app/com.inponsel.android/keywords'
p817
aS'https://www.appannie.com/apps/google-play/app/com.ww24GSpeedBrowser360DS_3762737/keywords'
p818
aS'https://www.appannie.com/apps/google-play/app/com.detik.pasangmata/keywords'
p819
aS'https://www.appannie.com/apps/google-play/app/com.ilmukebatinan.singdroid/keywords'
p820
aS'https://www.appannie.com/apps/google-play/app/com.mbahodi.kitabtasawuflengkap/keywords'
p821
aS'https://www.appannie.com/apps/google-play/app/com.amzcorp.grab/keywords'
p822
aS'https://www.appannie.com/apps/google-play/app/com.resepkuekering.singdroid/keywords'
p823
aS'https://www.appannie.com/apps/google-play/app/id.gits.news.swa/keywords'
p824
aS'https://www.appannie.com/apps/google-play/app/com.mahoni.majalahindonesia/keywords'
p825
aS'https://www.appannie.com/apps/google-play/app/com.beritajatim.info/keywords'
p826
aS'https://www.appannie.com/apps/google-play/app/com.cerpenhororkisahnyata.singdroid/keywords'
p827
aS'https://www.appannie.com/apps/google-play/app/com.asus_zenfone.www.asus_zenfoneblog/keywords'
p828
aS'https://www.appannie.com/apps/google-play/app/uk.co.economist/keywords'
p829
aS'https://www.appannie.com/apps/google-play/app/com.softonic/keywords'
p830
aS'https://www.appannie.com/apps/google-play/app/com.hindi.jagran.android.activity/keywords'
p831
aS'https://www.appannie.com/apps/google-play/app/mobile.android.tribun.daerah.jambi/keywords'
p832
aS'https://www.appannie.com/apps/google-play/app/com.tnews.beritaolahraga/keywords'
p833
aS'https://www.appannie.com/apps/google-play/app/com.stad.homemobasher/keywords'
p834
aS'https://www.appannie.com/apps/google-play/app/app.alumni.smasa/keywords'
p835
aS'https://www.appannie.com/apps/google-play/app/com.konsepmobile.gatranews/keywords'
p836
aS'https://www.appannie.com/apps/google-play/app/com.magazinecloner.mtguidetoflstudio/keywords'
p837
aS'https://www.appannie.com/apps/google-play/app/net.myhopestudio.gadgetmania/keywords'
p838
aS'https://www.appannie.com/apps/google-play/app/com.is.beritabola/keywords'
p839
aS'https://www.appannie.com/apps/google-play/app/id.co.kontan.epaper/keywords'
p840
aS'https://www.appannie.com/apps/google-play/app/all.newspapers.world/keywords'
p841
aS'https://www.appannie.com/apps/google-play/app/com.beda.media/keywords'
p842
aS'https://www.appannie.com/apps/google-play/app/com.freerange360.mpp.businessinsider/keywords'
p843
aS'https://www.appannie.com/apps/google-play/app/com.suara/keywords'
p844
aS'https://www.appannie.com/apps/google-play/app/com.karakterdanramalanshio.singdroid/keywords'
p845
aS'https://www.appannie.com/apps/google-play/app/com.nador.goal/keywords'
p846
aS'https://www.appannie.com/apps/google-play/app/com.karakterberdasarkanprimbon.singdroid/keywords'
p847
aS'https://www.appannie.com/apps/google-play/app/com.daingo.news.indonesia/keywords'
p848
aS'https://www.appannie.com/apps/google-play/app/com.rmol.android.rmol/keywords'
p849
aS'https://www.appannie.com/apps/google-play/app/com.ionicframework.ensiklopedia468889/keywords'
p850
aS'https://www.appannie.com/apps/google-play/app/com.KitabIlmuTasawufLengkap.kangodi/keywords'
p851
aS'https://www.appannie.com/apps/google-play/app/com.Inspirasi.Peluang.UsahaUKM/keywords'
p852
aS'https://www.appannie.com/apps/google-play/app/co.id.waspada/keywords'
p853
aS'https://www.appannie.com/apps/google-play/app/all.newspapers.id/keywords'
p854
aS'https://www.appannie.com/apps/google-play/app/com.gonews.aceh/keywords'
p855
aS'https://www.appannie.com/apps/google-play/app/com.july.ndtv/keywords'
p856
aS'https://www.appannie.com/apps/google-play/app/com.wriauposco/keywords'
p857
aS'https://www.appannie.com/apps/google-play/app/com.tv.ldiijatim/keywords'
p858
aS'https://www.appannie.com/apps/google-play/app/com.JakartaGlobe/keywords'
p859
aS'https://www.appannie.com/apps/google-play/app/com.newdesainkebayamodern.singdroid/keywords'
p860
aS'https://www.appannie.com/apps/google-play/app/com.andromaxtab.blog/keywords'
p861
aS'https://www.appannie.com/apps/google-play/app/com.binercom.novelberdarah/keywords'
p862
aS'https://www.appannie.com/apps/google-play/app/com.zumobi.msnbc/keywords'
p863
aS'https://www.appannie.com/apps/google-play/app/pitik.duwur.trickcrisisactionbestfreefps/keywords'
p864
aS'https://www.appannie.com/apps/google-play/app/mobile.android.tribun.daerah.sripo/keywords'
p865
aS'https://www.appannie.com/apps/google-play/app/com.aol.mobile.aolapp/keywords'
p866
aS'https://www.appannie.com/apps/google-play/app/id.co.rri.rrionline/keywords'
p867
aS'https://www.appannie.com/apps/google-play/app/ddw.gegerbanaran.newslivemestreamlivetipa/keywords'
p868
aS'https://www.appannie.com/apps/google-play/app/com.samsungupdate.updates/keywords'
p869
aS'https://www.appannie.com/apps/google-play/app/com.mawindi.beritaahokdjarot/keywords'
p870
aS'https://www.appannie.com/apps/google-play/app/com.tawadu.birds/keywords'
p871
aS'https://www.appannie.com/apps/google-play/app/com.allmyelegance.DIYFashionClothes/keywords'
p872
aS'https://www.appannie.com/apps/google-play/app/id.telset.telsetapps/keywords'
p873
aS'https://www.appannie.com/apps/google-play/app/com.mukjizatrosullullah.singdroid/keywords'
p874
aS'https://www.appannie.com/apps/google-play/app/com.mentari.IDNtimes/keywords'
p875
aS'https://www.appannie.com/apps/google-play/app/com.tokoonline168.apps.beritabolaallinone/keywords'
p876
aS'https://www.appannie.com/apps/google-play/app/com.berita.papua.matoaedulab/keywords'
p877
aS'https://www.appannie.com/apps/google-play/app/com.elshintadotcom.rcvoe/keywords'
p878
aS'https://www.appannie.com/apps/google-play/app/androlite.gempabumiindonesia/keywords'
p879
aS'https://www.appannie.com/apps/google-play/app/com.mobincube.android.sc_G25Z5/keywords'
p880
aS'https://www.appannie.com/apps/google-play/app/com.teropongsenayan.newsreader/keywords'
p881
aS'https://www.appannie.com/apps/google-play/app/com.BeritaInterMilanIndonesia/keywords'
p882
aS'https://www.appannie.com/apps/google-play/app/com.sexy.scandals/keywords'
p883
aS'https://www.appannie.com/apps/google-play/app/info.beritaunik/keywords'
p884
aS'https://www.appannie.com/apps/google-play/app/com.chakoo.beritaindonesianews/keywords'
p885
aS'https://www.appannie.com/apps/google-play/app/appinventor.batampos.coid/keywords'
p886
aS'https://www.appannie.com/apps/google-play/app/cn.tiger.livetoto4d/keywords'
p887
aS'https://www.appannie.com/apps/google-play/app/com.opera.android.news/keywords'
p888
aS'https://www.appannie.com/apps/google-play/app/com.breakthru.iwanbanaran/keywords'
p889
aS'https://www.appannie.com/apps/google-play/app/com.huffingtonpost.android/keywords'
p890
aS'https://www.appannie.com/apps/google-play/app/com.ayaldev.app.abs_cbn_news/keywords'
p891
aS'https://www.appannie.com/apps/google-play/app/com.panduantahajuddanwitir.singdroid/keywords'
p892
aS'https://www.appannie.com/apps/google-play/app/com.desainundangan.singdroid/keywords'
p893
aS'https://www.appannie.com/apps/google-play/app/com.allmyelegance.DIYHomeDecorIdeas/keywords'
p894
aS'https://www.appannie.com/apps/google-play/app/com.ss.android.article.news/keywords'
p895
aS'https://www.appannie.com/apps/google-play/app/com.noinnion.android.voicereading/keywords'
p896
aS'https://www.appannie.com/apps/google-play/app/com.cerpencintakisahnyata.singdroid/keywords'
p897
aS'https://www.appannie.com/apps/google-play/app/com.balitv/keywords'
p898
aS'https://www.appannie.com/apps/google-play/app/com.androidupdates/keywords'
p899
aS'https://www.appannie.com/apps/google-play/app/com.Komika.Indonesia/keywords'
p900
aS'https://www.appannie.com/apps/google-play/app/com.chalax.lahatonline/keywords'
p901
aS'https://www.appannie.com/apps/google-play/app/com.Ceramahislamiterbaik.singdroid/keywords'
p902
aS'https://www.appannie.com/apps/google-play/app/com.bacaberitaislam.bacaberitaislam/keywords'
p903
aS'https://www.appannie.com/apps/google-play/app/com.lionexpress.app/keywords'
p904
aS'https://www.appannie.com/apps/google-play/app/com.toolszoom.tricksfor.wwe2konesix.tricksforwwe.guideforwwe/keywords'
p905
aS'https://www.appannie.com/apps/google-play/app/buqu.autobild.android/keywords'
p906
aS'https://www.appannie.com/apps/google-play/app/com.rainbow.vn.theme.animekisslockscreen/keywords'
p907
aS'https://www.appannie.com/apps/google-play/app/com.radarcirebon.news/keywords'
p908
aS'https://www.appannie.com/apps/google-play/app/com.wPOSTMETRO_4246055/keywords'
p909
aS'https://www.appannie.com/apps/google-play/app/com.honeydev.resep.nusantara/keywords'
p910
aS'https://www.appannie.com/apps/google-play/app/com.mahoni.sinyal/keywords'
p911
aS'https://www.appannie.com/apps/google-play/app/com.creative2apps.resepcekersetan/keywords'
p912
aS'https://www.appannie.com/apps/google-play/app/indonesia.breaking.news/keywords'
p913
aS'https://www.appannie.com/apps/google-play/app/com.desainmehndi.singdroid/keywords'
p914
aS'https://www.appannie.com/apps/google-play/app/com.toi.reader.activities/keywords'
p915
aS'https://www.appannie.com/apps/google-play/app/com.dajjal.kisahasalusuldajjal/keywords'
p916
aS'https://www.appannie.com/apps/google-play/app/mobile.android.tribun.daerah.manado/keywords'
p917
aS'https://www.appannie.com/apps/google-play/app/com.newspaperdirect.jawapos.android/keywords'
p918
aS'https://www.appannie.com/apps/google-play/app/com.ai.dev.kumpulanterjemahkitabkitabkuning/keywords'
p919
aS'https://www.appannie.com/apps/google-play/app/com.andromo.dev583926.app555154/keywords'
p920
aS'https://www.appannie.com/apps/google-play/app/com.intelliappstudio.majalahwanita/keywords'
p921
aS'https://www.appannie.com/apps/google-play/app/com.harian.aceh.indonesia/keywords'
p922
aS'https://www.appannie.com/apps/google-play/app/com.pkkumb.mobile/keywords'
p923
aS'https://www.appannie.com/apps/google-play/app/com.buntetstudio.chordlagusambalado/keywords'
p924
aS'https://www.appannie.com/apps/google-play/app/com.allmyelegance.DIYCraftsIdeas/keywords'
p925
aS'https://www.appannie.com/apps/google-play/app/design.radartegal.com/keywords'
p926
aS'https://www.appannie.com/apps/google-play/app/com.chakoo.beritama/keywords'
p927
aS'https://www.appannie.com/apps/google-play/app/dilantaspoldariau.webby.dilantaspoldariau/keywords'
p928
aS'https://www.appannie.com/apps/google-play/app/sarapan.pagi.site/keywords'
p929
aS'https://www.appannie.com/apps/google-play/app/mobile.android.tribun.daerah.sumsel/keywords'
p930
aS'https://www.appannie.com/apps/google-play/app/com.islamedia.co/keywords'
p931
aS'https://www.appannie.com/apps/google-play/app/com.binercom.kenapabelumtidur/keywords'
p932
aS'https://www.appannie.com/apps/google-play/app/com.biografiulama.singdroid/keywords'
p933
aS'https://www.appannie.com/apps/google-play/app/mobile.android.tribun.daerah.pekanbaru/keywords'
p934
aS'https://www.appannie.com/apps/google-play/app/co.id.borneonews.reader.beta/keywords'
p935
aS'https://www.appannie.com/apps/google-play/app/com.portal.piyungan/keywords'
p936
aS'https://www.appannie.com/apps/google-play/app/com.ps.projectsinggalang/keywords'
p937
aS'https://www.appannie.com/apps/google-play/app/com.appsfoundry.scoopwl.id.infobank/keywords'
p938
aS'https://www.appannie.com/apps/google-play/app/com.wLowonganKerjaBatam/keywords'
p939
aS'https://www.appannie.com/apps/google-play/app/com.indiatv.news/keywords'
p940
aS'https://www.appannie.com/apps/google-play/app/jp.gocro.smartnews.android/keywords'
p941
aS'https://www.appannie.com/apps/google-play/app/com.ritekno.jambiupdate/keywords'
p942
aS'https://www.appannie.com/apps/google-play/app/com.tawadu.gangstar/keywords'
p943
aS'https://www.appannie.com/apps/google-play/app/com.pakardigital.infomotogp/keywords'
p944
aS'https://www.appannie.com/apps/google-play/app/com.berita.jawa.tengah.aubcsogrke_jhzrojiw/keywords'
p945
aS'https://www.appannie.com/apps/google-play/app/com.bps.ywtp/keywords'
p946
aS'https://www.appannie.com/apps/google-play/app/radar.surabaya/keywords'
p947
aS'https://www.appannie.com/apps/google-play/app/com.giago.trends.free/keywords'
p948
aS'https://www.appannie.com/apps/google-play/app/com.creative2apps.resepramen/keywords'
p949
aS'https://www.appannie.com/apps/google-play/app/com.Rumusmatematika.singdroid/keywords'
p950
aS'https://www.appannie.com/apps/google-play/app/com.detik.viva.tribun.news/keywords'
p951
aS'https://www.appannie.com/apps/google-play/app/com.berita.sepak.bola.ok/keywords'
p952
aS'https://www.appannie.com/apps/google-play/app/com.radarbantencoid.mobileapp.radarbantencoid/keywords'
p953
aS'https://www.appannie.com/apps/google-play/app/org.tokoonlineindonesia.apps.beritaotomotifindonesia/keywords'
p954
aS'https://www.appannie.com/apps/google-play/app/com.heirloom.sukipli/keywords'
p955
aS'https://www.appannie.com/apps/google-play/app/com.Pantundewasa.singdroid/keywords'
p956
aS'https://www.appannie.com/apps/google-play/app/com.indiatv.livetv/keywords'
p957
aS'https://www.appannie.com/apps/google-play/app/com.himatemiauntirta.app.himatemia_portal/keywords'
p958
aS'https://www.appannie.com/apps/google-play/app/com.cerpencinta2016.singdroid/keywords'
p959
aS'https://www.appannie.com/apps/google-play/app/com.berita.lampung.info/keywords'
p960
aS'https://www.appannie.com/apps/google-play/app/com.Biografisaqj.singdroid/keywords'
p961
aS'https://www.appannie.com/apps/google-play/app/com.InfoKyai/keywords'
p962
aS'https://www.appannie.com/apps/google-play/app/com.jitunews.launcher/keywords'
p963
aS'https://www.appannie.com/apps/google-play/app/com.codelabs.elshinta/keywords'
p964
aS'https://www.appannie.com/apps/google-play/app/com.shortir/keywords'
p965
aS'https://www.appannie.com/apps/google-play/app/radar.banyuwangi/keywords'
p966
aS'https://www.appannie.com/apps/google-play/app/com.berita.rotendao/keywords'
p967
aS'https://www.appannie.com/apps/google-play/app/com.tencent.news/keywords'
p968
aS'https://www.appannie.com/apps/google-play/app/com.economist.darwin/keywords'
p969
aS'https://www.appannie.com/apps/google-play/app/com.androidcentral.app/keywords'
p970
aS'https://www.appannie.com/apps/google-play/app/com.suaraislam.online/keywords'
p971
aS'https://www.appannie.com/apps/google-play/app/com.berita.sumut/keywords'
p972
aS'https://www.appannie.com/apps/google-play/app/com.kisahislami.singdroid/keywords'
p973
aS'https://www.appannie.com/apps/google-play/app/china.latest.news/keywords'
p974
aS'https://www.appannie.com/apps/google-play/app/jurnalintelijen.jurnalintelijen/keywords'
p975
aS'https://www.appannie.com/apps/google-play/app/id.androbroneo.undangundangkeperawatan/keywords'
p976
aS'https://www.appannie.com/apps/google-play/app/com.panduanbudidayaikanlele.singdroid/keywords'
p977
aS'https://www.appannie.com/apps/google-play/app/com.panduanbudidayaayampetelur.singdroid/keywords'
p978
aS'https://www.appannie.com/apps/google-play/app/ai.agusibrahim.fbhxk/keywords'
p979
aS'https://www.appannie.com/apps/google-play/app/id.bigio.ipj/keywords'
p980
aS'https://www.appannie.com/apps/google-play/app/com.umpanmancingikanairtawar.singdroid/keywords'
p981
aS'https://www.appannie.com/apps/google-play/app/com.infotechnodev.menpan.sample/keywords'
p982
aS'https://www.appannie.com/apps/google-play/app/com.id.inilahcom/keywords'
p983
aS'https://www.appannie.com/apps/google-play/app/com.panduanziarahkubur.singdroid/keywords'
p984
aS'https://www.appannie.com/apps/google-play/app/com.rubenmayayo.reddit/keywords'
p985
aS'https://www.appannie.com/apps/google-play/app/com.intecons.psd/keywords'
p986
aS'https://www.appannie.com/apps/google-play/app/id.gits.themarketeers/keywords'
p987
aS'https://www.appannie.com/apps/google-play/app/swv.eccugm.careernews/keywords'
p988
aS'https://www.appannie.com/apps/google-play/app/com.chandrawahyudi.balipost/keywords'
p989
aS'https://www.appannie.com/apps/google-play/app/com.berita.indonesia.terkini/keywords'
p990
aS'https://www.appannie.com/apps/google-play/app/com.poponews.global/keywords'
p991
aS'https://www.appannie.com/apps/google-play/app/com.wOPPONOID_4360701/keywords'
p992
aS'https://www.appannie.com/apps/google-play/app/appinventor.ai_developerandroid99.Satu_Berita/keywords'
p993
aS'https://www.appannie.com/apps/google-play/app/com.berita.jabar/keywords'
p994
a.