(dp0
Vappannie_categories
p1
NsVcategory_labels
p2
(dp3
VOVERALL > GAME > ARCADE
p4
VArcade & Action
p5
sVOVERALL > APPLICATION > TRANSPORTATION
p6
VMaps & Navigation
p7
sVOVERALL > GAME > BRAIN
p8
VBrain & Puzzle
p9
sVOVERALL > GAME > GAME_FAMILY
p10
VGame Family
p11
sVOVERALL > GAME > GAME_MUSIC
p12
VGame Music
p13
sVOVERALL > GAME > GAME_CARD
p14
VGame Card
p15
sVOVERALL > APPLICATION > ANDROID_WEAR
p16
VAndroid Wear
p17
sVOVERALL > GAME > GAME_STRATEGY
p18
VGame Strategy
p19
sVOVERALL > GAME > CASUAL
p20
VCasual
p21
sVOVERALL > APPLICATION > ENTERTAINMENT
p22
VEntertainment
p23
sVOVERALL > APPLICATION > MUSIC_AND_AUDIO
p24
VMusic & Audio
p25
sVOVERALL > GAME > GAME_ADVENTURE
p26
VGame Adventure
p27
sVOVERALL > GAME > GAME_ARCADE
p28
VGame Arcade
p29
sVOVERALL > FAMILY > FAMILY_ACTION
p30
VAction & Adventure
p31
sVOVERALL > APPLICATION > ART_AND_DESIGN
p32
VArt & Design
p33
sVOVERALL > APPLICATION > SOCIAL
p34
VSocial
p35
sVOVERALL > APPLICATION > BUSINESS
p36
VBusiness
p37
sVOVERALL > APPLICATION > LIFESTYLE
p38
VLifestyle
p39
sVOVERALL > APPLICATION > BEAUTY
p40
VBeauty
p41
sVOVERALL > GAME
p42
VGames
p43
sVOVERALL > APPLICATION > BOOKS_AND_REFERENCE
p44
VBooks & Reference
p45
sVOVERALL > APPLICATION > SHOPPING
p46
VShopping
p47
sVOVERALL > APPLICATION > EDUCATION
p48
VEducation
p49
sVOVERALL > GAME > GAME_TRIVIA
p50
VGame Trivia
p51
sVOVERALL > APPLICATION > NEWS_AND_MAGAZINES
p52
VNews & Magazines
p53
sVOVERALL > GAME > GAME_WALLPAPER
p54
VLive Wallpaper
p55
sVOVERALL > GAME > GAME_EDUCATIONAL
p56
VGame Educational
p57
sVOVERALL > APPLICATION > APP_WALLPAPER
p58
VLive Wallpaper
p59
sVOVERALL > GAME > SPORTS_GAMES
p60
VSports Games
p61
sVOVERALL > FAMILY > FAMILY_MUSICVIDEO
p62
VMusic & Video
p63
sVOVERALL > GAME > CARDS
p64
VCards & Casino
p65
sVOVERALL > APPLICATION > COMICS
p66
VComics
p67
sVOVERALL > APPLICATION > TOOLS
p68
VTools
p69
sVOVERALL > APPLICATION > FOOD_AND_DRINK
p70
VFood & Drink
p71
sVOVERALL > APPLICATION > MEDIA_AND_VIDEO
p72
VVideo Players & Editors
p73
sVOVERALL > FAMILY > FAMILY_BRAINGAMES
p74
VBrain Games
p75
sVOVERALL > APPLICATION > FINANCE
p76
VFinance
p77
sVOVERALL > APPLICATION > AUTO_AND_VEHICLES
p78
VAuto & Vehicles
p79
sVOVERALL > APPLICATION > PHOTOGRAPHY
p80
VPhotography
p81
sVOVERALL > GAME > GAME_WORD
p82
VGame Word
p83
sVOVERALL > APPLICATION > TRAVEL_AND_LOCAL
p84
VTravel & Local
p85
sVOVERALL > APPLICATION
p86
VApplications
p87
sVOVERALL > GAME > GAME_ROLE_PLAYING
p88
VGame Role Playing
p89
sVOVERALL > GAME > RACING
p90
VRacing
p91
sVOVERALL > GAME > GAME_ACTION
p92
VGame Action
p93
sVOVERALL > APPLICATION > WEATHER
p94
VWeather
p95
sVOVERALL > FAMILY
p96
VFamily
p97
sVOVERALL > APPLICATION > EVENTS
p98
VEvents
p99
sVOVERALL > FAMILY > AGE_RANGE3
p100
VAges 9 & Up
p101
sVOVERALL > FAMILY > AGE_RANGE2
p102
VAges 6-8
p103
sVOVERALL > FAMILY > AGE_RANGE1
p104
VAges 5 & Under
p105
sVOVERALL > FAMILY > FAMILY_EDUCATION
p106
VEducation
p107
sVOVERALL > APPLICATION > DATING
p108
VDating
p109
sVOVERALL > APPLICATION > APP_WIDGETS
p110
VWidgets
p111
sVOVERALL > APPLICATION > MEDICAL
p112
VMedical
p113
sVOVERALL > GAME > GAME_WIDGETS
p114
VWidgets
p115
sVOVERALL > APPLICATION > PARENTING
p116
VParenting
p117
sVOVERALL > APPLICATION > PERSONALIZATION
p118
VPersonalization
p119
sVOVERALL
p120
VOverall
p121
sVOVERALL > APPLICATION > LIBRARIES_AND_DEMO
p122
VLibraries & Demo
p123
sVOVERALL > GAME > GAME_PUZZLE
p124
VGame Puzzle
p125
sVOVERALL > APPLICATION > COMMUNICATION
p126
VCommunication
p127
sVOVERALL > GAME > GAME_BOARD
p128
VGame Board
p129
sVOVERALL > APPLICATION > SPORTS
p130
VSports
p131
sVOVERALL > GAME > GAME_CASINO
p132
VGame Casino
p133
sVOVERALL > APPLICATION > HOUSE_AND_HOME
p134
VHouse & Home
p135
sVOVERALL > APPLICATION > PRODUCTIVITY
p136
VProductivity
p137
sVOVERALL > GAME > GAME_SIMULATION
p138
VGame Simulation
p139
sVOVERALL > APPLICATION > HEALTH_AND_FITNESS
p140
VHealth & Fitness
p141
sVOVERALL > FAMILY > FAMILY_CREATE
p142
VCreativity
p143
sVOVERALL > FAMILY > FAMILY_PRETEND
p144
VPretend Play
p145
ssVcode
p146
I200
sVcategories
p147
(lp148
VOVERALL
p149
aVOVERALL > APPLICATION
p150
aVOVERALL > APPLICATION > ANDROID_WEAR
p151
aVOVERALL > APPLICATION > APP_WALLPAPER
p152
aVOVERALL > APPLICATION > APP_WIDGETS
p153
aVOVERALL > APPLICATION > ART_AND_DESIGN
p154
aVOVERALL > APPLICATION > AUTO_AND_VEHICLES
p155
aVOVERALL > APPLICATION > BEAUTY
p156
aVOVERALL > APPLICATION > BOOKS_AND_REFERENCE
p157
aVOVERALL > APPLICATION > BUSINESS
p158
aVOVERALL > APPLICATION > COMICS
p159
aVOVERALL > APPLICATION > COMMUNICATION
p160
aVOVERALL > APPLICATION > DATING
p161
aVOVERALL > APPLICATION > EDUCATION
p162
aVOVERALL > APPLICATION > ENTERTAINMENT
p163
aVOVERALL > APPLICATION > EVENTS
p164
aVOVERALL > APPLICATION > FINANCE
p165
aVOVERALL > APPLICATION > FOOD_AND_DRINK
p166
aVOVERALL > APPLICATION > HEALTH_AND_FITNESS
p167
aVOVERALL > APPLICATION > HOUSE_AND_HOME
p168
aVOVERALL > APPLICATION > LIBRARIES_AND_DEMO
p169
aVOVERALL > APPLICATION > LIFESTYLE
p170
aVOVERALL > APPLICATION > MEDIA_AND_VIDEO
p171
aVOVERALL > APPLICATION > MEDICAL
p172
aVOVERALL > APPLICATION > MUSIC_AND_AUDIO
p173
aVOVERALL > APPLICATION > NEWS_AND_MAGAZINES
p174
aVOVERALL > APPLICATION > PARENTING
p175
aVOVERALL > APPLICATION > PERSONALIZATION
p176
aVOVERALL > APPLICATION > PHOTOGRAPHY
p177
aVOVERALL > APPLICATION > PRODUCTIVITY
p178
aVOVERALL > APPLICATION > SHOPPING
p179
aVOVERALL > APPLICATION > SOCIAL
p180
aVOVERALL > APPLICATION > SPORTS
p181
aVOVERALL > APPLICATION > TOOLS
p182
aVOVERALL > APPLICATION > TRANSPORTATION
p183
aVOVERALL > APPLICATION > TRAVEL_AND_LOCAL
p184
aVOVERALL > APPLICATION > WEATHER
p185
aVOVERALL > FAMILY
p186
aVOVERALL > FAMILY > AGE_RANGE1
p187
aVOVERALL > FAMILY > AGE_RANGE2
p188
aVOVERALL > FAMILY > AGE_RANGE3
p189
aVOVERALL > FAMILY > FAMILY_ACTION
p190
aVOVERALL > FAMILY > FAMILY_BRAINGAMES
p191
aVOVERALL > FAMILY > FAMILY_CREATE
p192
aVOVERALL > FAMILY > FAMILY_EDUCATION
p193
aVOVERALL > FAMILY > FAMILY_MUSICVIDEO
p194
aVOVERALL > FAMILY > FAMILY_PRETEND
p195
aVOVERALL > GAME
p196
aVOVERALL > GAME > ARCADE
p197
aVOVERALL > GAME > BRAIN
p198
aVOVERALL > GAME > CARDS
p199
aVOVERALL > GAME > CASUAL
p200
aVOVERALL > GAME > GAME_ACTION
p201
aVOVERALL > GAME > GAME_ADVENTURE
p202
aVOVERALL > GAME > GAME_ARCADE
p203
aVOVERALL > GAME > GAME_BOARD
p204
aVOVERALL > GAME > GAME_CARD
p205
aVOVERALL > GAME > GAME_CASINO
p206
aVOVERALL > GAME > GAME_EDUCATIONAL
p207
aVOVERALL > GAME > GAME_FAMILY
p208
aVOVERALL > GAME > GAME_MUSIC
p209
aVOVERALL > GAME > GAME_PUZZLE
p210
aVOVERALL > GAME > GAME_ROLE_PLAYING
p211
aVOVERALL > GAME > GAME_SIMULATION
p212
aVOVERALL > GAME > GAME_STRATEGY
p213
aVOVERALL > GAME > GAME_TRIVIA
p214
aVOVERALL > GAME > GAME_WALLPAPER
p215
aVOVERALL > GAME > GAME_WIDGETS
p216
aVOVERALL > GAME > GAME_WORD
p217
aVOVERALL > GAME > RACING
p218
aVOVERALL > GAME > SPORTS_GAMES
p219
as.