(lp0
S'https://www.appannie.com/apps/google-play/app/com.king.candycrushsaga/keywords'
p1
aS'https://www.appannie.com/apps/google-play/app/com.outfit7.mytalkingtomfree/keywords'
p2
aS'https://www.appannie.com/apps/google-play/app/bubble.shooter.shooting.shoot.game/keywords'
p3
aS'https://www.appannie.com/apps/google-play/app/cookie.pop.match3/keywords'
p4
aS'https://www.appannie.com/apps/google-play/app/com.outfit7.mytalkingangelafree/keywords'
p5
aS'https://www.appannie.com/apps/google-play/app/com.king.candycrushsodasaga/keywords'
p6
aS'https://www.appannie.com/apps/google-play/app/com.errnopop.bubble.bird/keywords'
p7
aS'https://www.appannie.com/apps/google-play/app/com.crack.screen.prank.bfun/keywords'
p8
aS'https://www.appannie.com/apps/google-play/app/com.ladders/keywords'
p9
aS'https://www.appannie.com/apps/google-play/app/com.kidsthree.princessfashionsalon/keywords'
p10
aS'https://www.appannie.com/apps/google-play/app/bubbleshooter.orig/keywords'
p11
aS'https://www.appannie.com/apps/google-play/app/com.kidsfunstudio.wedding.party.cake.factory/keywords'
p12
aS'https://www.appannie.com/apps/google-play/app/com.outfit7.tomsbubbles/keywords'
p13
aS'https://www.appannie.com/apps/google-play/app/shoot.extreme/keywords'
p14
aS'https://www.appannie.com/apps/google-play/app/com.evogames.slavsforvk/keywords'
p15
aS'https://www.appannie.com/apps/google-play/app/com.rovio.baba/keywords'
p16
aS'https://www.appannie.com/apps/google-play/app/com.outfit7.mytalkinghank/keywords'
p17
aS'https://www.appannie.com/apps/google-play/app/com.gamoper.magiccandy.free/keywords'
p18
aS'https://www.appannie.com/apps/google-play/app/air.com.CookOwlCookiesForKids/keywords'
p19
aS'https://www.appannie.com/apps/google-play/app/com.nazara.tinylabproductions.chhotabheem/keywords'
p20
aS'https://www.appannie.com/apps/google-play/app/com.droidhermes.bottleninja/keywords'
p21
aS'https://www.appannie.com/apps/google-play/app/bubble.shoot.bubbles.game.saga.world/keywords'
p22
aS'https://www.appannie.com/apps/google-play/app/com.junglerunnazara.com.junglerun.nazara/keywords'
p23
aS'https://www.appannie.com/apps/google-play/app/com.supercell.hayday/keywords'
p24
aS'https://www.appannie.com/apps/google-play/app/com.tgg.kidscooking/keywords'
p25
aS'https://www.appannie.com/apps/google-play/app/com.playrix.fishdomdd.gplay/keywords'
p26
aS'https://www.appannie.com/apps/google-play/app/com.gathercultivatecountry.attack/keywords'
p27
aS'https://www.appannie.com/apps/google-play/app/bwebmedia.cookbakedlasagna/keywords'
p28
aS'https://www.appannie.com/apps/google-play/app/com.frolicfoxstudio.mineral.water.factory/keywords'
p29
aS'https://www.appannie.com/apps/google-play/app/com.outfit7.tomsjetski/keywords'
p30
aS'https://www.appannie.com/apps/google-play/app/com.moonactive.coinmaster/keywords'
p31
aS'https://www.appannie.com/apps/google-play/app/com.mobileguru.candyfever.free/keywords'
p32
aS'https://www.appannie.com/apps/google-play/app/com.k3games.cakeshop.free/keywords'
p33
aS'https://www.appannie.com/apps/google-play/app/com.gameresort.sz2google/keywords'
p34
aS'https://www.appannie.com/apps/google-play/app/com.mechmocha.cbhaalpha/keywords'
p35
aS'https://www.appannie.com/apps/google-play/app/com.kagame.MatchFruit/keywords'
p36
aS'https://www.appannie.com/apps/google-play/app/com.gamoper.bubbleshooter.free/keywords'
p37
aS'https://www.appannie.com/apps/google-play/app/com.rafotech.piggyboom/keywords'
p38
aS'https://www.appannie.com/apps/google-play/app/com.cocoplay.shoppinggirl/keywords'
p39
aS'https://www.appannie.com/apps/google-play/app/com.icegame.fruitlink/keywords'
p40
aS'https://www.appannie.com/apps/google-play/app/solitaire.klondike.card/keywords'
p41
aS'https://www.appannie.com/apps/google-play/app/com.snk.gopidollfashionsalon/keywords'
p42
aS'https://www.appannie.com/apps/google-play/app/com.easyorhardgames.SexTouch/keywords'
p43
aS'https://www.appannie.com/apps/google-play/app/com.k3games.babyfashiontailor2.free/keywords'
p44
aS'https://www.appannie.com/apps/google-play/app/com.playrix.gardenscapes/keywords'
p45
aS'https://www.appannie.com/apps/google-play/app/pl.idreams.potterylite/keywords'
p46
aS'https://www.appannie.com/apps/google-play/app/com.playrix.township/keywords'
p47
aS'https://www.appannie.com/apps/google-play/app/com.dressupone.fashionnailsalon/keywords'
p48
aS'https://www.appannie.com/apps/google-play/app/air.com.InteriorHomeDecoration/keywords'
p49
aS'https://www.appannie.com/apps/google-play/app/com.junesoftware.nazara.cbrace/keywords'
p50
aS'https://www.appannie.com/apps/google-play/app/macrostudios.truthordare/keywords'
p51
aS'https://www.appannie.com/apps/google-play/app/com.junesoftware.nazara.cbrush/keywords'
p52
aS'https://www.appannie.com/apps/google-play/app/air.com.microcookinggames.icecreamconecupcake/keywords'
p53
aS'https://www.appannie.com/apps/google-play/app/com.baviux.voicechanger/keywords'
p54
aS'https://www.appannie.com/apps/google-play/app/com.expertinapps.supermarketshoppinggirl/keywords'
p55
aS'https://www.appannie.com/apps/google-play/app/com.fatcat.weddingmakesalon/keywords'
p56
aS'https://www.appannie.com/apps/google-play/app/com.mobileguru.candyfever2.free/keywords'
p57
aS'https://www.appannie.com/apps/google-play/app/com.degoo.android.pregnantdoctor/keywords'
p58
aS'https://www.appannie.com/apps/google-play/app/com.bubble.shooter.shooting.shoot.free/keywords'
p59
aS'https://www.appannie.com/apps/google-play/app/com.triangletechnology.eggcatchersurprise/keywords'
p60
aS'https://www.appannie.com/apps/google-play/app/com.king.farmheroessaga/keywords'
p61
aS'https://www.appannie.com/apps/google-play/app/com.sm.pink.princess/keywords'
p62
aS'https://www.appannie.com/apps/google-play/app/com.gameresort.sz3/keywords'
p63
aS'https://www.appannie.com/apps/google-play/app/com.chillingo.catapultkingfree.android.row/keywords'
p64
aS'https://www.appannie.com/apps/google-play/app/com.nazara.mightyrajurun/keywords'
p65
aS'https://www.appannie.com/apps/google-play/app/com.tp.android.mcakestory/keywords'
p66
aS'https://www.appannie.com/apps/google-play/app/com.gameimax.princessvalentinehairstyle/keywords'
p67
aS'https://www.appannie.com/apps/google-play/app/air.hairnailandmakeup/keywords'
p68
aS'https://www.appannie.com/apps/google-play/app/com.carzycartoons.indiangirlmakeover/keywords'
p69
aS'https://www.appannie.com/apps/google-play/app/com.aiapps.ninjahattorijunglerun/keywords'
p70
aS'https://www.appannie.com/apps/google-play/app/com.tabtale.candyblash/keywords'
p71
aS'https://www.appannie.com/apps/google-play/app/com.blustudios.RoPaSc/keywords'
p72
aS'https://www.appannie.com/apps/google-play/app/com.ppppgame.parkingmaster/keywords'
p73
aS'https://www.appannie.com/apps/google-play/app/com.bubadu.doctorkids/keywords'
p74
aS'https://www.appannie.com/apps/google-play/app/com.mini1001games/keywords'
p75
aS'https://www.appannie.com/apps/google-play/app/com.kidsthree.cakemaster/keywords'
p76
aS'https://www.appannie.com/apps/google-play/app/com.stove.supertank.google/keywords'
p77
aS'https://www.appannie.com/apps/google-play/app/air.com.CookingColorfulIceCream/keywords'
p78
aS'https://www.appannie.com/apps/google-play/app/com.snk.gopidollfashionsalontwo/keywords'
p79
aS'https://www.appannie.com/apps/google-play/app/com.gameloft.android.ANMP.GloftDMHM/keywords'
p80
aS'https://www.appannie.com/apps/google-play/app/com.kiwigo.makeupfairyprincess.free/keywords'
p81
aS'https://www.appannie.com/apps/google-play/app/com.mongome.jungle.monkey2/keywords'
p82
aS'https://www.appannie.com/apps/google-play/app/com.expertinapps.hotelcleaning/keywords'
p83
aS'https://www.appannie.com/apps/google-play/app/com.gameiva.childrenbasicrulesofsafety/keywords'
p84
aS'https://www.appannie.com/apps/google-play/app/air.air.cookingstory/keywords'
p85
aS'https://www.appannie.com/apps/google-play/app/com.king.blossomblast/keywords'
p86
aS'https://www.appannie.com/apps/google-play/app/com.emrg.games.candybears/keywords'
p87
aS'https://www.appannie.com/apps/google-play/app/com.tabtale.tailorboutique/keywords'
p88
aS'https://www.appannie.com/apps/google-play/app/air.Princess/keywords'
p89
aS'https://www.appannie.com/apps/google-play/app/com.mobileguru.fruitsbomb.free/keywords'
p90
aS'https://www.appannie.com/apps/google-play/app/com.bearhugmedia.android_sportsday/keywords'
p91
aS'https://www.appannie.com/apps/google-play/app/com.magicmatch.sweetcandy.fever/keywords'
p92
aS'https://www.appannie.com/apps/google-play/app/com.pinka.classicbubbles/keywords'
p93
aS'https://www.appannie.com/apps/google-play/app/com.budgestudios.HelloKittyNailSalon/keywords'
p94
aS'https://www.appannie.com/apps/google-play/app/com.games.red2.penfight2free/keywords'
p95
aS'https://www.appannie.com/apps/google-play/app/com.k3games.longhairprincesssalon.free/keywords'
p96
aS'https://www.appannie.com/apps/google-play/app/com.junglecastleboy.apt/keywords'
p97
aS'https://www.appannie.com/apps/google-play/app/com.luckysnailgame.freefruitcut/keywords'
p98
aS'https://www.appannie.com/apps/google-play/app/bubble.fire/keywords'
p99
aS'https://www.appannie.com/apps/google-play/app/air.com.funacy.seryrunway/keywords'
p100
aS'https://www.appannie.com/apps/google-play/app/com.k3games.mylittlecat.free/keywords'
p101
aS'https://www.appannie.com/apps/google-play/app/com.tp.android.pregnantmomsurgery/keywords'
p102
aS'https://www.appannie.com/apps/google-play/app/air.DecorateYourWalkInCloset/keywords'
p103
aS'https://www.appannie.com/apps/google-play/app/net.beautyincorporated.android_preppyvsindie/keywords'
p104
aS'https://www.appannie.com/apps/google-play/app/com.ninelives.pianokeyboard/keywords'
p105
aS'https://www.appannie.com/apps/google-play/app/com.alifgamez.bottleshooter3d/keywords'
p106
aS'https://www.appannie.com/apps/google-play/app/com.cocoplay.cocohiphop/keywords'
p107
aS'https://www.appannie.com/apps/google-play/app/com.player.farm.lamvuon.farming.nongtrai.farmer.hayfarm.game.bigfarmer/keywords'
p108
aS'https://www.appannie.com/apps/google-play/app/com.worldcitygirls.hairstylesalon/keywords'
p109
aS'https://www.appannie.com/apps/google-play/app/bwebmedia.strawberryicecreamsandwiches/keywords'
p110
aS'https://www.appannie.com/apps/google-play/app/com.andregal.android.billard/keywords'
p111
aS'https://www.appannie.com/apps/google-play/app/com.gameimax.kidsschool/keywords'
p112
aS'https://www.appannie.com/apps/google-play/app/com.zynga.looney/keywords'
p113
aS'https://www.appannie.com/apps/google-play/app/air.com.OliviaBrideAndWeddingDresses/keywords'
p114
aS'https://www.appannie.com/apps/google-play/app/com.amusingapps.fashiondollindianwedding/keywords'
p115
aS'https://www.appannie.com/apps/google-play/app/com.tabtale.nailsalon/keywords'
p116
aS'https://www.appannie.com/apps/google-play/app/com.babyhub.babygopidollfashionsalon/keywords'
p117
aS'https://www.appannie.com/apps/google-play/app/air.com.rainbowgirlgames.A33In1GamesForGirls/keywords'
p118
aS'https://www.appannie.com/apps/google-play/app/com.bravokidsmedia.android_superherodoctorsurgery/keywords'
p119
aS'https://www.appannie.com/apps/google-play/app/com.kidsthree.eardoctor/keywords'
p120
aS'https://www.appannie.com/apps/google-play/app/air.com.PrincessRoomCleanup/keywords'
p121
aS'https://www.appannie.com/apps/google-play/app/com.melesta.coffeeshop/keywords'
p122
aS'https://www.appannie.com/apps/google-play/app/com.k3games.princessfashionsalongirls.free/keywords'
p123
aS'https://www.appannie.com/apps/google-play/app/com.studiobomber.classic.bomberman/keywords'
p124
aS'https://www.appannie.com/apps/google-play/app/com.pixelapestudios.bluk/keywords'
p125
aS'https://www.appannie.com/apps/google-play/app/com.rovio.ABstellapop/keywords'
p126
aS'https://www.appannie.com/apps/google-play/app/com.cooolgames.fruitlinkdeluxe/keywords'
p127
aS'https://www.appannie.com/apps/google-play/app/com.junesoftware.nazara.cbtoy/keywords'
p128
aS'https://www.appannie.com/apps/google-play/app/pl.infinzmedia.talkingbaby/keywords'
p129
aS'https://www.appannie.com/apps/google-play/app/com.gms.snake.ladders.dice.free/keywords'
p130
aS'https://www.appannie.com/apps/google-play/app/air.com.GirlyRoomDecorationGame/keywords'
p131
aS'https://www.appannie.com/apps/google-play/app/com.ids.little.farm.time.fun/keywords'
p132
aS'https://www.appannie.com/apps/google-play/app/com.bucketball.game.android/keywords'
p133
aS'https://www.appannie.com/apps/google-play/app/com.bxapps.PrincessNailSalon/keywords'
p134
aS'https://www.appannie.com/apps/google-play/app/com.Animated.Coloring.Pages.Games.For.Girls/keywords'
p135
aS'https://www.appannie.com/apps/google-play/app/com.gameloft.android.ANMP.GloftL2HM/keywords'
p136
aS'https://www.appannie.com/apps/google-play/app/com.k3games.princessmakeupsalon.free/keywords'
p137
aS'https://www.appannie.com/apps/google-play/app/com.g5e.mahjong.android/keywords'
p138
aS'https://www.appannie.com/apps/google-play/app/com.kiwigo.beautyandbeastmakeup.free/keywords'
p139
aS'https://www.appannie.com/apps/google-play/app/com.mattel.bestjobever/keywords'
p140
aS'https://www.appannie.com/apps/google-play/app/com.spilgames.mydolphinshow/keywords'
p141
aS'https://www.appannie.com/apps/google-play/app/com.gamebuzz.indianmakeupanddressup/keywords'
p142
aS'https://www.appannie.com/apps/google-play/app/com.rovio.angrybirdsstarwarsii.ads/keywords'
p143
aS'https://www.appannie.com/apps/google-play/app/com.disney.frozenletitroll_goo/keywords'
p144
aS'https://www.appannie.com/apps/google-play/app/com.bubadu.buildergame/keywords'
p145
aS'https://www.appannie.com/apps/google-play/app/com.outthinking.SaloneGame/keywords'
p146
aS'https://www.appannie.com/apps/google-play/app/com.cartoonnetwork.asia/keywords'
p147
aS'https://www.appannie.com/apps/google-play/app/com.savgame.candy.blast.legend/keywords'
p148
aS'https://www.appannie.com/apps/google-play/app/air.Newbron.PrincessAndBabymakeupSpa/keywords'
p149
aS'https://www.appannie.com/apps/google-play/app/com.mobileguru.candyjourney.free/keywords'
p150
aS'https://www.appannie.com/apps/google-play/app/com.degoo.android.icecreammaker/keywords'
p151
aS'https://www.appannie.com/apps/google-play/app/com.kauf.princessgamesalonangela3d/keywords'
p152
aS'https://www.appannie.com/apps/google-play/app/com.mewarnai.untukanak.buah/keywords'
p153
aS'https://www.appannie.com/apps/google-play/app/com.appgame7.candyfrenzy/keywords'
p154
aS'https://www.appannie.com/apps/google-play/app/air.com.sfardakh.safr/keywords'
p155
aS'https://www.appannie.com/apps/google-play/app/com.cravecreative.kidscootiecatchersfree/keywords'
p156
aS'https://www.appannie.com/apps/google-play/app/com.gametheory.inidandollmakeover/keywords'
p157
aS'https://www.appannie.com/apps/google-play/app/com.fatcat.SupermaketSmallHeaded/keywords'
p158
aS'https://www.appannie.com/apps/google-play/app/air.com.BurgerShopFastFood/keywords'
p159
aS'https://www.appannie.com/apps/google-play/app/bwebmedia.sandralearnshousecraft/keywords'
p160
aS'https://www.appannie.com/apps/google-play/app/com.linkdesks.iBubble/keywords'
p161
aS'https://www.appannie.com/apps/google-play/app/com.kidsthree.babyfashiontailor/keywords'
p162
aS'https://www.appannie.com/apps/google-play/app/com.kidsfunstudio.water.gun.factory/keywords'
p163
aS'https://www.appannie.com/apps/google-play/app/com.lezhi.PromSalon/keywords'
p164
aS'https://www.appannie.com/apps/google-play/app/com.FoxieGames.DinoWorldOnline/keywords'
p165
aS'https://www.appannie.com/apps/google-play/app/air.worldfashiontrip/keywords'
p166
aS'https://www.appannie.com/apps/google-play/app/com.g6677.android.design/keywords'
p167
aS'https://www.appannie.com/apps/google-play/app/com.twodfunclub.cycle.repair.shop/keywords'
p168
aS'https://www.appannie.com/apps/google-play/app/com.templejunglerun.bigmobi/keywords'
p169
aS'https://www.appannie.com/apps/google-play/app/com.g6677.android.phairsalon/keywords'
p170
aS'https://www.appannie.com/apps/google-play/app/air.com.netfunmedia.fairytaleprincess/keywords'
p171
aS'https://www.appannie.com/apps/google-play/app/com.ea.game.pvz2_row/keywords'
p172
aS'https://www.appannie.com/apps/google-play/app/by.alfasoft.Constructor/keywords'
p173
aS'https://www.appannie.com/apps/google-play/app/com.tabtale.nailfiasco/keywords'
p174
aS'https://www.appannie.com/apps/google-play/app/me.pou.app/keywords'
p175
aS'https://www.appannie.com/apps/google-play/app/com.abto.manicure/keywords'
p176
aS'https://www.appannie.com/apps/google-play/app/com.marknajom.beardsalon/keywords'
p177
aS'https://www.appannie.com/apps/google-play/app/com.tp.android.pfullbodyspa/keywords'
p178
aS'https://www.appannie.com/apps/google-play/app/com.seventwostudios.snowprincesstailorboutique/keywords'
p179
aS'https://www.appannie.com/apps/google-play/app/com.tabtale.myfirstcrush/keywords'
p180
aS'https://www.appannie.com/apps/google-play/app/com.gamoper.sweetcandypop.free/keywords'
p181
aS'https://www.appannie.com/apps/google-play/app/dvortsov.alexey.cinderella2/keywords'
p182
aS'https://www.appannie.com/apps/google-play/app/air.princesscookingfood/keywords'
p183
aS'https://www.appannie.com/apps/google-play/app/com.skigames.indianbeautysalonmakeup2016/keywords'
p184
aS'https://www.appannie.com/apps/google-play/app/com.wjjstudio.sling/keywords'
p185
aS'https://www.appannie.com/apps/google-play/app/com.Mani.Pedi.Toenail.Spa.Game.Hand.Care/keywords'
p186
aS'https://www.appannie.com/apps/google-play/app/com.snk.indonesiandollfashionsalon/keywords'
p187
aS'https://www.appannie.com/apps/google-play/app/com.midasplayer.apps.bubblewitchsaga2/keywords'
p188
aS'https://www.appannie.com/apps/google-play/app/com.crazycatsmedia.android_make_chinesefood/keywords'
p189
aS'https://www.appannie.com/apps/google-play/app/com.honeybadger.armsurgery/keywords'
p190
aS'https://www.appannie.com/apps/google-play/app/com.cocoplay.highschoolcrush/keywords'
p191
aS'https://www.appannie.com/apps/google-play/app/com.bb.mommy.newborn.care/keywords'
p192
aS'https://www.appannie.com/apps/google-play/app/com.beautygirlsinc.android_pimplemakeupsalon/keywords'
p193
aS'https://www.appannie.com/apps/google-play/app/net.makerlabs.android_streetfoodstand/keywords'
p194
aS'https://www.appannie.com/apps/google-play/app/google.free.traindentist.peachygamesllc/keywords'
p195
aS'https://www.appannie.com/apps/google-play/app/bubbleshooter.puzzle/keywords'
p196
aS'https://www.appannie.com/apps/google-play/app/air.com.cocosapps.NurseBathing/keywords'
p197
aS'https://www.appannie.com/apps/google-play/app/com.cocoplay.promqueen/keywords'
p198
aS'https://www.appannie.com/apps/google-play/app/com.lezhi.weddingpreparationsalon/keywords'
p199
aS'https://www.appannie.com/apps/google-play/app/com.k3games.ambulancedoctor.free/keywords'
p200
aS'https://www.appannie.com/apps/google-play/app/com.dong.back.activity/keywords'
p201
aS'https://www.appannie.com/apps/google-play/app/com.nmuluvugoogle.mehndidesigns13/keywords'
p202
aS'https://www.appannie.com/apps/google-play/app/air.restaurantgames/keywords'
p203
aS'https://www.appannie.com/apps/google-play/app/com.nikugames.gaddira/keywords'
p204
aS'https://www.appannie.com/apps/google-play/app/air.IcyQueenspamakeupparty/keywords'
p205
aS'https://www.appannie.com/apps/google-play/app/com.indiangirlmakeover.indianweddingsalon/keywords'
p206
aS'https://www.appannie.com/apps/google-play/app/google.free.supermodel.peachygamesllc/keywords'
p207
aS'https://www.appannie.com/apps/google-play/app/com.fingerscanner.sexyhotnessscan/keywords'
p208
aS'https://www.appannie.com/apps/google-play/app/com.tot.fingerprint.lockscreen/keywords'
p209
aS'https://www.appannie.com/apps/google-play/app/bwebmedia.homedecoration/keywords'
p210
aS'https://www.appannie.com/apps/google-play/app/air.net.endemolgames.flyingteddy/keywords'
p211
aS'https://www.appannie.com/apps/google-play/app/com.gameloft.android.ANMP.GloftGF2F/keywords'
p212
aS'https://www.appannie.com/apps/google-play/app/com.GhostFakeCall/keywords'
p213
aS'https://www.appannie.com/apps/google-play/app/air.babyprincesscaring/keywords'
p214
aS'https://www.appannie.com/apps/google-play/app/net.beautysalongames.android_vampirelovestory/keywords'
p215
aS'https://www.appannie.com/apps/google-play/app/com.tabtale.plasticsurgery/keywords'
p216
aS'https://www.appannie.com/apps/google-play/app/com.fruitcandy.blast/keywords'
p217
aS'https://www.appannie.com/apps/google-play/app/com.plaftalkinggames.talkingelephant/keywords'
p218
aS'https://www.appannie.com/apps/google-play/app/net.m7g7.GirlsHairdresserSalon/keywords'
p219
aS'https://www.appannie.com/apps/google-play/app/com.kidsfunzeal.icee.slushy.mania.frozen.drinks/keywords'
p220
aS'https://www.appannie.com/apps/google-play/app/air.air.BridalShop/keywords'
p221
aS'https://www.appannie.com/apps/google-play/app/xray.ruocco/keywords'
p222
aS'https://www.appannie.com/apps/google-play/app/com.aiapps.ninjahattorifightingrun/keywords'
p223
aS'https://www.appannie.com/apps/google-play/app/air.Class_Room_Fun/keywords'
p224
aS'https://www.appannie.com/apps/google-play/app/com.k3games.airportmanager/keywords'
p225
aS'https://www.appannie.com/apps/google-play/app/bwebmedia.princessfashionsalongame/keywords'
p226
aS'https://www.appannie.com/apps/google-play/app/com.cubicsparrow.icecandymakerkids/keywords'
p227
aS'https://www.appannie.com/apps/google-play/app/com.ramimartin.hundredballs/keywords'
p228
aS'https://www.appannie.com/apps/google-play/app/air.net.purplestudio.TreatmentBabyDoctor/keywords'
p229
aS'https://www.appannie.com/apps/google-play/app/com.funkidsgame.android.throatsurgery/keywords'
p230
aS'https://www.appannie.com/apps/google-play/app/com.animoca.google.starGirl/keywords'
p231
aS'https://www.appannie.com/apps/google-play/app/com.budgestudios.ChuggingtonReadyToBuild/keywords'
p232
aS'https://www.appannie.com/apps/google-play/app/com.k3games.donuthero.free/keywords'
p233
aS'https://www.appannie.com/apps/google-play/app/com.chuggington.teamtrainee/keywords'
p234
aS'https://www.appannie.com/apps/google-play/app/com.rms.gamesforkids.coloring.princess/keywords'
p235
aS'https://www.appannie.com/apps/google-play/app/com.thomsandapps.wheelofsurpriseeggs/keywords'
p236
aS'https://www.appannie.com/apps/google-play/app/com.king.petrescuesaga/keywords'
p237
aS'https://www.appannie.com/apps/google-play/app/air.com.vgv9games.PrincessPartyDressUp/keywords'
p238
aS'https://www.appannie.com/apps/google-play/app/net.fashiondollinc.android_dollcakebakery/keywords'
p239
aS'https://www.appannie.com/apps/google-play/app/com.freakyapps.tailorsupermarketcashregister/keywords'
p240
aS'https://www.appannie.com/apps/google-play/app/com.tp.android.pgrowsup/keywords'
p241
aS'https://www.appannie.com/apps/google-play/app/air.bettyshairsalon/keywords'
p242
aS'https://www.appannie.com/apps/google-play/app/air.trendyhairspa/keywords'
p243
aS'https://www.appannie.com/apps/google-play/app/com.waiterstripgirl.bill/keywords'
p244
aS'https://www.appannie.com/apps/google-play/app/air.mwe.cookingcuteheartcupcakes/keywords'
p245
aS'https://www.appannie.com/apps/google-play/app/com.gameimax.hairdodesign/keywords'
p246
aS'https://www.appannie.com/apps/google-play/app/com.bravokidsmedia.android_pregnant/keywords'
p247
aS'https://www.appannie.com/apps/google-play/app/com.kidsthree.mermaidsalon/keywords'
p248
aS'https://www.appannie.com/apps/google-play/app/air.com.SuperCarWash/keywords'
p249
aS'https://www.appannie.com/apps/google-play/app/com.lezhi.WeddingSpaSalon/keywords'
p250
aS'https://www.appannie.com/apps/google-play/app/com.tabtale.fashionstarfiasco/keywords'
p251
aS'https://www.appannie.com/apps/google-play/app/air.PrincessCastleCakeCookingDecoration/keywords'
p252
aS'https://www.appannie.com/apps/google-play/app/net.purplestudio.MotherBathSalon/keywords'
p253
aS'https://www.appannie.com/apps/google-play/app/net.fashiondollinc.android_shoppingsalon/keywords'
p254
aS'https://www.appannie.com/apps/google-play/app/com.king.farmheroessupersaga/keywords'
p255
aS'https://www.appannie.com/apps/google-play/app/air.Lovelymomandbabycare/keywords'
p256
aS'https://www.appannie.com/apps/google-play/app/com.gobit.burgershop/keywords'
p257
aS'https://www.appannie.com/apps/google-play/app/com.gogo.Fashion.Braid.Hairstyles.Salon/keywords'
p258
aS'https://www.appannie.com/apps/google-play/app/com.funloop.farmhousefamilyvacations/keywords'
p259
aS'https://www.appannie.com/apps/google-play/app/com.eyewind.colorfit.princess/keywords'
p260
aS'https://www.appannie.com/apps/google-play/app/com.gobit.burgershop.ads/keywords'
p261
aS'https://www.appannie.com/apps/google-play/app/com.pjmasks.moonlightheroes/keywords'
p262
aS'https://www.appannie.com/apps/google-play/app/com.k3games.datemakeup.free/keywords'
p263
aS'https://www.appannie.com/apps/google-play/app/air.air.cookingchef/keywords'
p264
aS'https://www.appannie.com/apps/google-play/app/com.dressupone.candyfabric/keywords'
p265
aS'https://www.appannie.com/apps/google-play/app/com.g6677.android.beard/keywords'
p266
aS'https://www.appannie.com/apps/google-play/app/air.com.CookingWeddingCake/keywords'
p267
aS'https://www.appannie.com/apps/google-play/app/com.bubbleshooter.pop.shooter.bubble.free/keywords'
p268
aS'https://www.appannie.com/apps/google-play/app/es.adderit.raildraw/keywords'
p269
aS'https://www.appannie.com/apps/google-play/app/air.funpetwaterpark/keywords'
p270
aS'https://www.appannie.com/apps/google-play/app/com.k3games.eyedoctor.free/keywords'
p271
aS'https://www.appannie.com/apps/google-play/app/com.princessmobileentertainment.android_dogssalon/keywords'
p272
aS'https://www.appannie.com/apps/google-play/app/com.mozgame.sugarsplash/keywords'
p273
aS'https://www.appannie.com/apps/google-play/app/com.ezfunny.jungle.marble.blast/keywords'
p274
aS'https://www.appannie.com/apps/google-play/app/bwebmedia.mermaidsmakeoversalon/keywords'
p275
aS'https://www.appannie.com/apps/google-play/app/com.simplyfunmedia.android_bridalboutique/keywords'
p276
aS'https://www.appannie.com/apps/google-play/app/air.fizizi.PrincessDollFashionDressUpGames/keywords'
p277
aS'https://www.appannie.com/apps/google-play/app/com.bluebodysoft.talkingghost/keywords'
p278
aS'https://www.appannie.com/apps/google-play/app/air.com.netfunmedia.princesscakemaker/keywords'
p279
aS'https://www.appannie.com/apps/google-play/app/com.visiongamingstudio.dolls.cake.maker/keywords'
p280
aS'https://www.appannie.com/apps/google-play/app/com.funtooshstudio.build.a.village/keywords'
p281
aS'https://www.appannie.com/apps/google-play/app/net.makerlabs.android_sweetcottoncandymaker/keywords'
p282
aS'https://www.appannie.com/apps/google-play/app/com.jellybtn.cashkingmobile/keywords'
p283
aS'https://www.appannie.com/apps/google-play/app/com.cookie.crush.maina.jam.candy.free/keywords'
p284
aS'https://www.appannie.com/apps/google-play/app/air.com.Vegetarianchilicookinggame/keywords'
p285
aS'https://www.appannie.com/apps/google-play/app/com.kidsthree.doctormania/keywords'
p286
aS'https://www.appannie.com/apps/google-play/app/com.bxapps.NewbornBabyCare/keywords'
p287
aS'https://www.appannie.com/apps/google-play/app/com.tabtale.fairytalepuzzles/keywords'
p288
aS'https://www.appannie.com/apps/google-play/app/com.k3games.burgershop.free/keywords'
p289
aS'https://www.appannie.com/apps/google-play/app/com.gameiva.powercutactivities/keywords'
p290
aS'https://www.appannie.com/apps/google-play/app/com.cocoplay.cocofitness/keywords'
p291
aS'https://www.appannie.com/apps/google-play/app/air.com.WeddingHairstyleGame/keywords'
p292
aS'https://www.appannie.com/apps/google-play/app/com.kidsfunstudio.supermarket.repair.cleanup/keywords'
p293
aS'https://www.appannie.com/apps/google-play/app/com.mycatemma.virtualpet/keywords'
p294
aS'https://www.appannie.com/apps/google-play/app/com.jaizee.tunnelvision/keywords'
p295
aS'https://www.appannie.com/apps/google-play/app/princess.coloring.book.kids/keywords'
p296
aS'https://www.appannie.com/apps/google-play/app/com.snk.cinderellabeautysalon/keywords'
p297
aS'https://www.appannie.com/apps/google-play/app/com.bearhugmedia.android_longhairwedding/keywords'
p298
aS'https://www.appannie.com/apps/google-play/app/com.woofie.surgery.simulator/keywords'
p299
aS'https://www.appannie.com/apps/google-play/app/air.com.BabyKittyHairSalon/keywords'
p300
aS'https://www.appannie.com/apps/google-play/app/com.mobimonsterit.pickapencil/keywords'
p301
aS'https://www.appannie.com/apps/google-play/app/com.marblelab.jungle.marble.blast/keywords'
p302
aS'https://www.appannie.com/apps/google-play/app/bubbleshooter.pop/keywords'
p303
aS'https://www.appannie.com/apps/google-play/app/com.bubadu.supermarket/keywords'
p304
aS'https://www.appannie.com/apps/google-play/app/com.gameimax.royalprincessfullbodyspa/keywords'
p305
aS'https://www.appannie.com/apps/google-play/app/com.g6677.android.nailmr/keywords'
p306
aS'https://www.appannie.com/apps/google-play/app/air.loveandbloodhe/keywords'
p307
aS'https://www.appannie.com/apps/google-play/app/com.frolicfoxstudio.sports.car.factory/keywords'
p308
aS'https://www.appannie.com/apps/google-play/app/com.cocoplay.iceskater/keywords'
p309
aS'https://www.appannie.com/apps/google-play/app/com.cocoplay.cocoballerina/keywords'
p310
aS'https://www.appannie.com/apps/google-play/app/com.kidsfunstudio.bicycle.factory/keywords'
p311
aS'https://www.appannie.com/apps/google-play/app/com.galbro.faucet/keywords'
p312
aS'https://www.appannie.com/apps/google-play/app/com.Bow3.TheClaw/keywords'
p313
aS'https://www.appannie.com/apps/google-play/app/com.bearhugmedia.android_magichairsalonmakeover/keywords'
p314
aS'https://www.appannie.com/apps/google-play/app/net.beautysalongames.nerdygirllove/keywords'
p315
aS'https://www.appannie.com/apps/google-play/app/com.game.BubbleShooter/keywords'
p316
aS'https://www.appannie.com/apps/google-play/app/com.RoyalGames.TwinsBabyCareAndFeeding/keywords'
p317
aS'https://www.appannie.com/apps/google-play/app/com.onetech.nailsalon/keywords'
p318
aS'https://www.appannie.com/apps/google-play/app/com.short2games.gimmickisland/keywords'
p319
aS'https://www.appannie.com/apps/google-play/app/bwebmedia.princesshairdosalon/keywords'
p320
aS'https://www.appannie.com/apps/google-play/app/com.tipytapy.royal.princess.makeover/keywords'
p321
aS'https://www.appannie.com/apps/google-play/app/com.linkdeskstudio.popcat/keywords'
p322
aS'https://www.appannie.com/apps/google-play/app/com.frozennetworkinc.android_snowconesfrozen/keywords'
p323
aS'https://www.appannie.com/apps/google-play/app/com.markings.candyrain/keywords'
p324
aS'https://www.appannie.com/apps/google-play/app/air.fizizi.PrincessDressUpFashionGames/keywords'
p325
aS'https://www.appannie.com/apps/google-play/app/com.kidsfunstudio.cold.drink.factory/keywords'
p326
aS'https://www.appannie.com/apps/google-play/app/com.kingdom.candycrazysugar.free/keywords'
p327
aS'https://www.appannie.com/apps/google-play/app/com.g6677.android.pmn/keywords'
p328
aS'https://www.appannie.com/apps/google-play/app/com.igames.appleshooter/keywords'
p329
aS'https://www.appannie.com/apps/google-play/app/com.crazycatsmedia.android_make_cake/keywords'
p330
aS'https://www.appannie.com/apps/google-play/app/net.makerlabs.android_fairdeepfriedfood/keywords'
p331
aS'https://www.appannie.com/apps/google-play/app/com.onexsoftech.fakecallprank/keywords'
p332
aS'https://www.appannie.com/apps/google-play/app/com.coba.game.archeryshooting/keywords'
p333
aS'https://www.appannie.com/apps/google-play/app/com.kiwigo.worldfashionmakeup.free/keywords'
p334
aS'https://www.appannie.com/apps/google-play/app/air.ariettascrazyteamcamping/keywords'
p335
aS'https://www.appannie.com/apps/google-play/app/air.com.KidsLearnWithCookingGame/keywords'
p336
aS'https://www.appannie.com/apps/google-play/app/com.k3games.milkshakecookingfever.free/keywords'
p337
aS'https://www.appannie.com/apps/google-play/app/com.candykingdoms.candysogamania/keywords'
p338
aS'https://www.appannie.com/apps/google-play/app/cookie.crush.pop/keywords'
p339
aS'https://www.appannie.com/apps/google-play/app/com.lezhi.indiangirlsalon/keywords'
p340
aS'https://www.appannie.com/apps/google-play/app/air.com.A5mgames.icequeenbeautysalon/keywords'
p341
aS'https://www.appannie.com/apps/google-play/app/com.woofie.megasurgery/keywords'
p342
aS'https://www.appannie.com/apps/google-play/app/com.bravokidsmedia.android_newbornbabymania/keywords'
p343
aS'https://www.appannie.com/apps/google-play/app/com.sofiatech.the_first_dress_up_game_for_princess2/keywords'
p344
aS'https://www.appannie.com/apps/google-play/app/com.mindskydesignlabs.ganeshacolouring/keywords'
p345
aS'https://www.appannie.com/apps/google-play/app/com.magmamobile.game.Burger/keywords'
p346
aS'https://www.appannie.com/apps/google-play/app/com.beautygirlsinc.android_fashiondressdesigner/keywords'
p347
aS'https://www.appannie.com/apps/google-play/app/air.com.winkypinky.princesscastleroom/keywords'
p348
aS'https://www.appannie.com/apps/google-play/app/com.game.bubbleshooter.free/keywords'
p349
aS'https://www.appannie.com/apps/google-play/app/com.bfs.papertoss/keywords'
p350
aS'https://www.appannie.com/apps/google-play/app/com.dexterltd.games.balloon_bow_arrow/keywords'
p351
aS'https://www.appannie.com/apps/google-play/app/com.ea.gp.pvzheroes/keywords'
p352
aS'https://www.appannie.com/apps/google-play/app/com.bluebodysoft.talkingmermaid/keywords'
p353
aS'https://www.appannie.com/apps/google-play/app/bwebmedia.mycoloringbook/keywords'
p354
aS'https://www.appannie.com/apps/google-play/app/air.com.PrincessBathSalon/keywords'
p355
aS'https://www.appannie.com/apps/google-play/app/fivespace.simulator.firecreen/keywords'
p356
aS'https://www.appannie.com/apps/google-play/app/com.bubadu.gardenkids/keywords'
p357
aS'https://www.appannie.com/apps/google-play/app/air.com.CookingColorfulCake/keywords'
p358
aS'https://www.appannie.com/apps/google-play/app/com.gameloft.android.ANMP.GloftIAHM/keywords'
p359
aS'https://www.appannie.com/apps/google-play/app/com.beansprites.supermarketpharmacysimulator/keywords'
p360
aS'https://www.appannie.com/apps/google-play/app/com.mystylinglounge.android_dollgirlsalon/keywords'
p361
aS'https://www.appannie.com/apps/google-play/app/girl_games.mlp.hair_salon.nail_salon.princess_salon.freegame/keywords'
p362
aS'https://www.appannie.com/apps/google-play/app/com.tapblaze.nailsalonmakeover/keywords'
p363
aS'https://www.appannie.com/apps/google-play/app/candy.sweet.fever.match3.free/keywords'
p364
aS'https://www.appannie.com/apps/google-play/app/com.temple.subway.brave.run/keywords'
p365
aS'https://www.appannie.com/apps/google-play/app/air.com.IceCreamConeCupcakesCandy/keywords'
p366
aS'https://www.appannie.com/apps/google-play/app/com.k3games.supermodelsalon.free/keywords'
p367
aS'https://www.appannie.com/apps/google-play/app/com.beautystorygames.android_makeupsalonstars/keywords'
p368
aS'https://www.appannie.com/apps/google-play/app/com.g6677.android.ledoctor/keywords'
p369
aS'https://www.appannie.com/apps/google-play/app/air.baby.MermaidNewbornCare/keywords'
p370
aS'https://www.appannie.com/apps/google-play/app/air.com.babygames.PrincessElsaTwinsCare/keywords'
p371
aS'https://www.appannie.com/apps/google-play/app/es.parrotgames.restaurantcity/keywords'
p372
aS'https://www.appannie.com/apps/google-play/app/com.kidsfunstudio.popcorn.factory/keywords'
p373
aS'https://www.appannie.com/apps/google-play/app/air.com.limetoy.fairyweddingsalon/keywords'
p374
aS'https://www.appannie.com/apps/google-play/app/com.beautygirlsinc.android_lipstickmaker/keywords'
p375
aS'https://www.appannie.com/apps/google-play/app/com.k3games.weddingsalon/keywords'
p376
aS'https://www.appannie.com/apps/google-play/app/com.nenoff.followthelinefree/keywords'
p377
aS'https://www.appannie.com/apps/google-play/app/com.kidsmediainc.android_shoppingmalladventure/keywords'
p378
aS'https://www.appannie.com/apps/google-play/app/com.threesixtyfive.jewels.candymania/keywords'
p379
aS'https://www.appannie.com/apps/google-play/app/com.salonmakeover.pregantmommy/keywords'
p380
aS'https://www.appannie.com/apps/google-play/app/com.frolicfoxstudio.pani.puri.maker/keywords'
p381
aS'https://www.appannie.com/apps/google-play/app/com.tp.android.newborntwin/keywords'
p382
aS'https://www.appannie.com/apps/google-play/app/com.shieldprank.brokenscreen/keywords'
p383
aS'https://www.appannie.com/apps/google-play/app/air.com.CleanUpSpaSalon/keywords'
p384
aS'https://www.appannie.com/apps/google-play/app/air.topcookingrush/keywords'
p385
aS'https://www.appannie.com/apps/google-play/app/com.coloringmobilestudio.boycoloringshinchang/keywords'
p386
aS'https://www.appannie.com/apps/google-play/app/com.tabtale.datenightmare/keywords'
p387
aS'https://www.appannie.com/apps/google-play/app/air.mwe.takingbathforyourcat/keywords'
p388
aS'https://www.appannie.com/apps/google-play/app/air.com.StrawberryShortCake/keywords'
p389
aS'https://www.appannie.com/apps/google-play/app/com.tobiapps.android_100fl/keywords'
p390
aS'https://www.appannie.com/apps/google-play/app/si.pilcom.apps.pizzamakerkids/keywords'
p391
aS'https://www.appannie.com/apps/google-play/app/games.casual.cl/keywords'
p392
aS'https://www.appannie.com/apps/google-play/app/air.Beautifulbridedressup/keywords'
p393
aS'https://www.appannie.com/apps/google-play/app/com.gamegos.mobile.cafeland/keywords'
p394
aS'https://www.appannie.com/apps/google-play/app/com.bitbytestudios.foodfactory/keywords'
p395
aS'https://www.appannie.com/apps/google-play/app/com.coloring.book.animals/keywords'
p396
aS'https://www.appannie.com/apps/google-play/app/air.hairstylefashion/keywords'
p397
aS'https://www.appannie.com/apps/google-play/app/com.kiwigo.littlerepairman.free/keywords'
p398
aS'https://www.appannie.com/apps/google-play/app/com.MobileGeniuses.CandyMatching3/keywords'
p399
aS'https://www.appannie.com/apps/google-play/app/com.yoob.games/keywords'
p400
aS'https://www.appannie.com/apps/google-play/app/com.pooja.TreehouseBuilder/keywords'
p401
aS'https://www.appannie.com/apps/google-play/app/com.foranj.farmtown/keywords'
p402
aS'https://www.appannie.com/apps/google-play/app/com.aavega.jalikattu/keywords'
p403
aS'https://www.appannie.com/apps/google-play/app/air.DentistFear/keywords'
p404
aS'https://www.appannie.com/apps/google-play/app/com.ama.lovetest.calculator/keywords'
p405
aS'https://www.appannie.com/apps/google-play/app/com.g6677.android.cmcg/keywords'
p406
aS'https://www.appannie.com/apps/google-play/app/com.playday.game.medievalFarm.android/keywords'
p407
aS'https://www.appannie.com/apps/google-play/app/com.tp.android.footd/keywords'
p408
aS'https://www.appannie.com/apps/google-play/app/com.bitbytestudios.soupmaker/keywords'
p409
aS'https://www.appannie.com/apps/google-play/app/com.tab2fun.ice.cream.kids.cooking.game/keywords'
p410
aS'https://www.appannie.com/apps/google-play/app/air.girl.TailorDressDesigner/keywords'
p411
aS'https://www.appannie.com/apps/google-play/app/com.rms.gamesforkids.painting.cars/keywords'
p412
aS'https://www.appannie.com/apps/google-play/app/com.funkidsgame.android.fitthesmellyfeet/keywords'
p413
aS'https://www.appannie.com/apps/google-play/app/com.mystylinglounge.android_dreamdollmakeover/keywords'
p414
aS'https://www.appannie.com/apps/google-play/app/com.keladan.fakecall/keywords'
p415
aS'https://www.appannie.com/apps/google-play/app/com.lezhi.bridesmaidsalon/keywords'
p416
aS'https://www.appannie.com/apps/google-play/app/com.funloop.SchoolTripForKids/keywords'
p417
aS'https://www.appannie.com/apps/google-play/app/air.com.winkypinky.dressuproyalprincessdoll/keywords'
p418
aS'https://www.appannie.com/apps/google-play/app/com.bearhugmedia.android_princess_makeover_salon/keywords'
p419
aS'https://www.appannie.com/apps/google-play/app/com.beautygirlsinc.android_younggirlsalon2/keywords'
p420
aS'https://www.appannie.com/apps/google-play/app/com.kidsfunstudio.milk.factory/keywords'
p421
aS'https://www.appannie.com/apps/google-play/app/com.magmamobile.game.Bonneteau/keywords'
p422
aS'https://www.appannie.com/apps/google-play/app/com.bubble.asgame/keywords'
p423
aS'https://www.appannie.com/apps/google-play/app/com.tabtale.donutshop/keywords'
p424
aS'https://www.appannie.com/apps/google-play/app/com.bubbleshooter.farm.shooter.free/keywords'
p425
aS'https://www.appannie.com/apps/google-play/app/com.coloringmobilestudio.coloringkidsdoraemones/keywords'
p426
aS'https://www.appannie.com/apps/google-play/app/com.freakyapps.hotelcleaning/keywords'
p427
aS'https://www.appannie.com/apps/google-play/app/net.purplestudio.WeddingJewerlyShop/keywords'
p428
aS'https://www.appannie.com/apps/google-play/app/com.cocoplay.cocosupermodel/keywords'
p429
aS'https://www.appannie.com/apps/google-play/app/com.bravokidsmedia.android_celebrityemergency/keywords'
p430
aS'https://www.appannie.com/apps/google-play/app/air.cookingapplepie/keywords'
p431
aS'https://www.appannie.com/apps/google-play/app/com.gameimax.princessbeachbeautysalon/keywords'
p432
aS'https://www.appannie.com/apps/google-play/app/com.gamebuzz.puppysalonpetdaycare/keywords'
p433
aS'https://www.appannie.com/apps/google-play/app/com.zynga.FarmVille2CountryEscape/keywords'
p434
aS'https://www.appannie.com/apps/google-play/app/com.funtooshstudio.truck.repair/keywords'
p435
aS'https://www.appannie.com/apps/google-play/app/com.doodlejoy.studio.kidsdoojoy/keywords'
p436
aS'https://www.appannie.com/apps/google-play/app/com.kidsmediainc.android_vacationpassport/keywords'
p437
aS'https://www.appannie.com/apps/google-play/app/com.kidsthree.icecreammaster/keywords'
p438
aS'https://www.appannie.com/apps/google-play/app/com.gameloft.android.ANMP.GloftZRHM/keywords'
p439
aS'https://www.appannie.com/apps/google-play/app/com.freakyapps.braidedhairstylesgirlsgames/keywords'
p440
aS'https://www.appannie.com/apps/google-play/app/com.tabtale.beachparty/keywords'
p441
aS'https://www.appannie.com/apps/google-play/app/com.kidsfunstudio.icecream.factory2/keywords'
p442
aS'https://www.appannie.com/apps/google-play/app/tic.tac.toe.games.tictactoe.puzzle.free/keywords'
p443
aS'https://www.appannie.com/apps/google-play/app/com.sevelina.icywedding/keywords'
p444
aS'https://www.appannie.com/apps/google-play/app/com.appon.kitchenstory/keywords'
p445
aS'https://www.appannie.com/apps/google-play/app/com.mobileguru.fruitboom.free/keywords'
p446
aS'https://www.appannie.com/apps/google-play/app/com.bubble.shoot.bubbles.shooter.blast.game.free/keywords'
p447
aS'https://www.appannie.com/apps/google-play/app/se.ace.whatif/keywords'
p448
aS'https://www.appannie.com/apps/google-play/app/com.tp.android.emergencysurgery/keywords'
p449
aS'https://www.appannie.com/apps/google-play/app/likrishmm.likrishmm/keywords'
p450
aS'https://www.appannie.com/apps/google-play/app/com.bubble.shoot.shootbubble.classicbubble.free/keywords'
p451
aS'https://www.appannie.com/apps/google-play/app/com.funkidsgame.android.earsurgery/keywords'
p452
aS'https://www.appannie.com/apps/google-play/app/fever.bubble.shooter/keywords'
p453
aS'https://www.appannie.com/apps/google-play/app/com.bravokidsmedia.android_summerdoctor/keywords'
p454
aS'https://www.appannie.com/apps/google-play/app/com.color.mandala/keywords'
p455
aS'https://www.appannie.com/apps/google-play/app/com.babyaadhya.aadhyasgoodnight/keywords'
p456
aS'https://www.appannie.com/apps/google-play/app/com.gameimax.naildoctor/keywords'
p457
aS'https://www.appannie.com/apps/google-play/app/com.pirasmani.android.makeup2_free/keywords'
p458
aS'https://www.appannie.com/apps/google-play/app/air.com.FastFoodRestaurant/keywords'
p459
aS'https://www.appannie.com/apps/google-play/app/air.com.winkypinky.gardendecoration/keywords'
p460
aS'https://www.appannie.com/apps/google-play/app/com.IceCreamCashRegister/keywords'
p461
aS'https://www.appannie.com/apps/google-play/app/bwebmedia.cookingdonuts/keywords'
p462
aS'https://www.appannie.com/apps/google-play/app/com.g6677.android.pnailspa/keywords'
p463
aS'https://www.appannie.com/apps/google-play/app/ammanify.apps.coloring_for_kids/keywords'
p464
aS'https://www.appannie.com/apps/google-play/app/bwebmedia.cookingrainbowbirthdaycake/keywords'
p465
aS'https://www.appannie.com/apps/google-play/app/com.bxapps.SchoolPizzaDelivery/keywords'
p466
aS'https://www.appannie.com/apps/google-play/app/com.tamalaki.hogmysterysociety/keywords'
p467
aS'https://www.appannie.com/apps/google-play/app/air.air.savethefarm/keywords'
p468
aS'https://www.appannie.com/apps/google-play/app/com.arthisoft.fashiondollmakeover/keywords'
p469
aS'https://www.appannie.com/apps/google-play/app/com.appphobia.fakegirlfriendcallprank/keywords'
p470
aS'https://www.appannie.com/apps/google-play/app/com.gamesomini.duckhunting/keywords'
p471
aS'https://www.appannie.com/apps/google-play/app/com.sevelina.frozenland/keywords'
p472
aS'https://www.appannie.com/apps/google-play/app/com.tgg.pregnantmommyemergency/keywords'
p473
aS'https://www.appannie.com/apps/google-play/app/com.snk.iceprincessmakeover/keywords'
p474
aS'https://www.appannie.com/apps/google-play/app/air.bwebmedia.candycakemaker/keywords'
p475
aS'https://www.appannie.com/apps/google-play/app/com.tp.android.bffnewbaby/keywords'
p476
aS'https://www.appannie.com/apps/google-play/app/com.hapogames.BubbleParadise/keywords'
p477
aS'https://www.appannie.com/apps/google-play/app/com.marothiatechs.stonepillar/keywords'
p478
aS'https://www.appannie.com/apps/google-play/app/air.MakeupDivaSalon/keywords'
p479
aS'https://www.appannie.com/apps/google-play/app/com.cocoplay.weddingplanner/keywords'
p480
aS'https://www.appannie.com/apps/google-play/app/com.g6677.android.princessspas/keywords'
p481
aS'https://www.appannie.com/apps/google-play/app/com.budgestudios.BarbieMagicalFashion/keywords'
p482
aS'https://www.appannie.com/apps/google-play/app/com.mtsfreegames.bottleshootinggames/keywords'
p483
aS'https://www.appannie.com/apps/google-play/app/com.amusingapps.radha.krishna.dressup/keywords'
p484
aS'https://www.appannie.com/apps/google-play/app/bwebmedia.conecupcakesmaker/keywords'
p485
aS'https://www.appannie.com/apps/google-play/app/com.gamoper.sweetgardenfruit.free/keywords'
p486
aS'https://www.appannie.com/apps/google-play/app/com.popreach.dumbways/keywords'
p487
aS'https://www.appannie.com/apps/google-play/app/com.funkidsgame.android.newbornbabystory2/keywords'
p488
aS'https://www.appannie.com/apps/google-play/app/com.jokerkidsgame.PrincessPromNight/keywords'
p489
aS'https://www.appannie.com/apps/google-play/app/com.gizapps.unicorndash/keywords'
p490
aS'https://www.appannie.com/apps/google-play/app/com.popcornmakergames.PopcornFactory/keywords'
p491
aS'https://www.appannie.com/apps/google-play/app/com.microcookinggames.justfajitas/keywords'
p492
aS'https://www.appannie.com/apps/google-play/app/ideamk.com.surpriseeggs/keywords'
p493
aS'https://www.appannie.com/apps/google-play/app/com.hugsnhearts.android_modernprincessteaparty/keywords'
p494
aS'https://www.appannie.com/apps/google-play/app/com.mobzapp.voicefx/keywords'
p495
aS'https://www.appannie.com/apps/google-play/app/com.alexkoi.baby/keywords'
p496
aS'https://www.appannie.com/apps/google-play/app/com.dressupone.bakecupcakes/keywords'
p497
aS'https://www.appannie.com/apps/google-play/app/org.friends.funnybest/keywords'
p498
aS'https://www.appannie.com/apps/google-play/app/org.orangenose.games/keywords'
p499
aS'https://www.appannie.com/apps/google-play/app/com.king.candycrushsaga/keywords'
p500
aS'https://www.appannie.com/apps/google-play/app/com.outfit7.mytalkingtomfree/keywords'
p501
aS'https://www.appannie.com/apps/google-play/app/bubble.shooter.shooting.shoot.game/keywords'
p502
aS'https://www.appannie.com/apps/google-play/app/cookie.pop.match3/keywords'
p503
aS'https://www.appannie.com/apps/google-play/app/com.outfit7.mytalkingangelafree/keywords'
p504
aS'https://www.appannie.com/apps/google-play/app/com.king.candycrushsodasaga/keywords'
p505
aS'https://www.appannie.com/apps/google-play/app/com.errnopop.bubble.bird/keywords'
p506
aS'https://www.appannie.com/apps/google-play/app/com.crack.screen.prank.bfun/keywords'
p507
aS'https://www.appannie.com/apps/google-play/app/com.ladders/keywords'
p508
aS'https://www.appannie.com/apps/google-play/app/com.kidsthree.princessfashionsalon/keywords'
p509
aS'https://www.appannie.com/apps/google-play/app/bubbleshooter.orig/keywords'
p510
aS'https://www.appannie.com/apps/google-play/app/com.kidsfunstudio.wedding.party.cake.factory/keywords'
p511
aS'https://www.appannie.com/apps/google-play/app/com.outfit7.tomsbubbles/keywords'
p512
aS'https://www.appannie.com/apps/google-play/app/shoot.extreme/keywords'
p513
aS'https://www.appannie.com/apps/google-play/app/com.evogames.slavsforvk/keywords'
p514
aS'https://www.appannie.com/apps/google-play/app/com.rovio.baba/keywords'
p515
aS'https://www.appannie.com/apps/google-play/app/com.outfit7.mytalkinghank/keywords'
p516
aS'https://www.appannie.com/apps/google-play/app/com.gamoper.magiccandy.free/keywords'
p517
aS'https://www.appannie.com/apps/google-play/app/air.com.CookOwlCookiesForKids/keywords'
p518
aS'https://www.appannie.com/apps/google-play/app/com.nazara.tinylabproductions.chhotabheem/keywords'
p519
aS'https://www.appannie.com/apps/google-play/app/com.droidhermes.bottleninja/keywords'
p520
aS'https://www.appannie.com/apps/google-play/app/bubble.shoot.bubbles.game.saga.world/keywords'
p521
aS'https://www.appannie.com/apps/google-play/app/com.junglerunnazara.com.junglerun.nazara/keywords'
p522
aS'https://www.appannie.com/apps/google-play/app/com.supercell.hayday/keywords'
p523
aS'https://www.appannie.com/apps/google-play/app/com.tgg.kidscooking/keywords'
p524
aS'https://www.appannie.com/apps/google-play/app/com.playrix.fishdomdd.gplay/keywords'
p525
aS'https://www.appannie.com/apps/google-play/app/com.gathercultivatecountry.attack/keywords'
p526
aS'https://www.appannie.com/apps/google-play/app/bwebmedia.cookbakedlasagna/keywords'
p527
aS'https://www.appannie.com/apps/google-play/app/com.frolicfoxstudio.mineral.water.factory/keywords'
p528
aS'https://www.appannie.com/apps/google-play/app/com.outfit7.tomsjetski/keywords'
p529
aS'https://www.appannie.com/apps/google-play/app/com.moonactive.coinmaster/keywords'
p530
aS'https://www.appannie.com/apps/google-play/app/com.mobileguru.candyfever.free/keywords'
p531
aS'https://www.appannie.com/apps/google-play/app/com.k3games.cakeshop.free/keywords'
p532
aS'https://www.appannie.com/apps/google-play/app/com.gameresort.sz2google/keywords'
p533
aS'https://www.appannie.com/apps/google-play/app/com.mechmocha.cbhaalpha/keywords'
p534
aS'https://www.appannie.com/apps/google-play/app/com.kagame.MatchFruit/keywords'
p535
aS'https://www.appannie.com/apps/google-play/app/com.gamoper.bubbleshooter.free/keywords'
p536
aS'https://www.appannie.com/apps/google-play/app/com.rafotech.piggyboom/keywords'
p537
aS'https://www.appannie.com/apps/google-play/app/com.cocoplay.shoppinggirl/keywords'
p538
aS'https://www.appannie.com/apps/google-play/app/com.icegame.fruitlink/keywords'
p539
aS'https://www.appannie.com/apps/google-play/app/solitaire.klondike.card/keywords'
p540
aS'https://www.appannie.com/apps/google-play/app/com.snk.gopidollfashionsalon/keywords'
p541
aS'https://www.appannie.com/apps/google-play/app/com.easyorhardgames.SexTouch/keywords'
p542
aS'https://www.appannie.com/apps/google-play/app/com.k3games.babyfashiontailor2.free/keywords'
p543
aS'https://www.appannie.com/apps/google-play/app/com.playrix.gardenscapes/keywords'
p544
aS'https://www.appannie.com/apps/google-play/app/pl.idreams.potterylite/keywords'
p545
aS'https://www.appannie.com/apps/google-play/app/com.playrix.township/keywords'
p546
aS'https://www.appannie.com/apps/google-play/app/com.dressupone.fashionnailsalon/keywords'
p547
aS'https://www.appannie.com/apps/google-play/app/air.com.InteriorHomeDecoration/keywords'
p548
aS'https://www.appannie.com/apps/google-play/app/com.junesoftware.nazara.cbrace/keywords'
p549
aS'https://www.appannie.com/apps/google-play/app/macrostudios.truthordare/keywords'
p550
aS'https://www.appannie.com/apps/google-play/app/com.junesoftware.nazara.cbrush/keywords'
p551
aS'https://www.appannie.com/apps/google-play/app/air.com.microcookinggames.icecreamconecupcake/keywords'
p552
aS'https://www.appannie.com/apps/google-play/app/com.baviux.voicechanger/keywords'
p553
aS'https://www.appannie.com/apps/google-play/app/com.expertinapps.supermarketshoppinggirl/keywords'
p554
aS'https://www.appannie.com/apps/google-play/app/com.fatcat.weddingmakesalon/keywords'
p555
aS'https://www.appannie.com/apps/google-play/app/com.mobileguru.candyfever2.free/keywords'
p556
aS'https://www.appannie.com/apps/google-play/app/com.degoo.android.pregnantdoctor/keywords'
p557
aS'https://www.appannie.com/apps/google-play/app/com.bubble.shooter.shooting.shoot.free/keywords'
p558
aS'https://www.appannie.com/apps/google-play/app/com.triangletechnology.eggcatchersurprise/keywords'
p559
aS'https://www.appannie.com/apps/google-play/app/com.king.farmheroessaga/keywords'
p560
aS'https://www.appannie.com/apps/google-play/app/com.sm.pink.princess/keywords'
p561
aS'https://www.appannie.com/apps/google-play/app/com.gameresort.sz3/keywords'
p562
aS'https://www.appannie.com/apps/google-play/app/com.chillingo.catapultkingfree.android.row/keywords'
p563
aS'https://www.appannie.com/apps/google-play/app/com.nazara.mightyrajurun/keywords'
p564
aS'https://www.appannie.com/apps/google-play/app/com.tp.android.mcakestory/keywords'
p565
aS'https://www.appannie.com/apps/google-play/app/com.gameimax.princessvalentinehairstyle/keywords'
p566
aS'https://www.appannie.com/apps/google-play/app/air.hairnailandmakeup/keywords'
p567
aS'https://www.appannie.com/apps/google-play/app/com.carzycartoons.indiangirlmakeover/keywords'
p568
aS'https://www.appannie.com/apps/google-play/app/com.aiapps.ninjahattorijunglerun/keywords'
p569
aS'https://www.appannie.com/apps/google-play/app/com.tabtale.candyblash/keywords'
p570
aS'https://www.appannie.com/apps/google-play/app/com.blustudios.RoPaSc/keywords'
p571
aS'https://www.appannie.com/apps/google-play/app/com.ppppgame.parkingmaster/keywords'
p572
aS'https://www.appannie.com/apps/google-play/app/com.bubadu.doctorkids/keywords'
p573
aS'https://www.appannie.com/apps/google-play/app/com.mini1001games/keywords'
p574
aS'https://www.appannie.com/apps/google-play/app/com.kidsthree.cakemaster/keywords'
p575
aS'https://www.appannie.com/apps/google-play/app/com.stove.supertank.google/keywords'
p576
aS'https://www.appannie.com/apps/google-play/app/air.com.CookingColorfulIceCream/keywords'
p577
aS'https://www.appannie.com/apps/google-play/app/com.snk.gopidollfashionsalontwo/keywords'
p578
aS'https://www.appannie.com/apps/google-play/app/com.gameloft.android.ANMP.GloftDMHM/keywords'
p579
aS'https://www.appannie.com/apps/google-play/app/com.kiwigo.makeupfairyprincess.free/keywords'
p580
aS'https://www.appannie.com/apps/google-play/app/com.mongome.jungle.monkey2/keywords'
p581
aS'https://www.appannie.com/apps/google-play/app/com.expertinapps.hotelcleaning/keywords'
p582
aS'https://www.appannie.com/apps/google-play/app/com.gameiva.childrenbasicrulesofsafety/keywords'
p583
aS'https://www.appannie.com/apps/google-play/app/air.air.cookingstory/keywords'
p584
aS'https://www.appannie.com/apps/google-play/app/com.king.blossomblast/keywords'
p585
aS'https://www.appannie.com/apps/google-play/app/com.emrg.games.candybears/keywords'
p586
aS'https://www.appannie.com/apps/google-play/app/com.tabtale.tailorboutique/keywords'
p587
aS'https://www.appannie.com/apps/google-play/app/air.Princess/keywords'
p588
aS'https://www.appannie.com/apps/google-play/app/com.mobileguru.fruitsbomb.free/keywords'
p589
aS'https://www.appannie.com/apps/google-play/app/com.bearhugmedia.android_sportsday/keywords'
p590
aS'https://www.appannie.com/apps/google-play/app/com.magicmatch.sweetcandy.fever/keywords'
p591
aS'https://www.appannie.com/apps/google-play/app/com.pinka.classicbubbles/keywords'
p592
aS'https://www.appannie.com/apps/google-play/app/com.budgestudios.HelloKittyNailSalon/keywords'
p593
aS'https://www.appannie.com/apps/google-play/app/com.games.red2.penfight2free/keywords'
p594
aS'https://www.appannie.com/apps/google-play/app/com.k3games.longhairprincesssalon.free/keywords'
p595
aS'https://www.appannie.com/apps/google-play/app/com.junglecastleboy.apt/keywords'
p596
aS'https://www.appannie.com/apps/google-play/app/com.luckysnailgame.freefruitcut/keywords'
p597
aS'https://www.appannie.com/apps/google-play/app/bubble.fire/keywords'
p598
aS'https://www.appannie.com/apps/google-play/app/air.com.funacy.seryrunway/keywords'
p599
aS'https://www.appannie.com/apps/google-play/app/com.k3games.mylittlecat.free/keywords'
p600
aS'https://www.appannie.com/apps/google-play/app/com.tp.android.pregnantmomsurgery/keywords'
p601
aS'https://www.appannie.com/apps/google-play/app/air.DecorateYourWalkInCloset/keywords'
p602
aS'https://www.appannie.com/apps/google-play/app/net.beautyincorporated.android_preppyvsindie/keywords'
p603
aS'https://www.appannie.com/apps/google-play/app/com.ninelives.pianokeyboard/keywords'
p604
aS'https://www.appannie.com/apps/google-play/app/com.alifgamez.bottleshooter3d/keywords'
p605
aS'https://www.appannie.com/apps/google-play/app/com.cocoplay.cocohiphop/keywords'
p606
aS'https://www.appannie.com/apps/google-play/app/com.player.farm.lamvuon.farming.nongtrai.farmer.hayfarm.game.bigfarmer/keywords'
p607
aS'https://www.appannie.com/apps/google-play/app/com.worldcitygirls.hairstylesalon/keywords'
p608
aS'https://www.appannie.com/apps/google-play/app/bwebmedia.strawberryicecreamsandwiches/keywords'
p609
aS'https://www.appannie.com/apps/google-play/app/com.andregal.android.billard/keywords'
p610
aS'https://www.appannie.com/apps/google-play/app/com.gameimax.kidsschool/keywords'
p611
aS'https://www.appannie.com/apps/google-play/app/com.zynga.looney/keywords'
p612
aS'https://www.appannie.com/apps/google-play/app/air.com.OliviaBrideAndWeddingDresses/keywords'
p613
aS'https://www.appannie.com/apps/google-play/app/com.amusingapps.fashiondollindianwedding/keywords'
p614
aS'https://www.appannie.com/apps/google-play/app/com.tabtale.nailsalon/keywords'
p615
aS'https://www.appannie.com/apps/google-play/app/com.babyhub.babygopidollfashionsalon/keywords'
p616
aS'https://www.appannie.com/apps/google-play/app/air.com.rainbowgirlgames.A33In1GamesForGirls/keywords'
p617
aS'https://www.appannie.com/apps/google-play/app/com.bravokidsmedia.android_superherodoctorsurgery/keywords'
p618
aS'https://www.appannie.com/apps/google-play/app/com.kidsthree.eardoctor/keywords'
p619
aS'https://www.appannie.com/apps/google-play/app/air.com.PrincessRoomCleanup/keywords'
p620
aS'https://www.appannie.com/apps/google-play/app/com.melesta.coffeeshop/keywords'
p621
aS'https://www.appannie.com/apps/google-play/app/com.k3games.princessfashionsalongirls.free/keywords'
p622
aS'https://www.appannie.com/apps/google-play/app/com.studiobomber.classic.bomberman/keywords'
p623
aS'https://www.appannie.com/apps/google-play/app/com.pixelapestudios.bluk/keywords'
p624
aS'https://www.appannie.com/apps/google-play/app/com.rovio.ABstellapop/keywords'
p625
aS'https://www.appannie.com/apps/google-play/app/com.cooolgames.fruitlinkdeluxe/keywords'
p626
aS'https://www.appannie.com/apps/google-play/app/com.junesoftware.nazara.cbtoy/keywords'
p627
aS'https://www.appannie.com/apps/google-play/app/pl.infinzmedia.talkingbaby/keywords'
p628
aS'https://www.appannie.com/apps/google-play/app/com.gms.snake.ladders.dice.free/keywords'
p629
aS'https://www.appannie.com/apps/google-play/app/air.com.GirlyRoomDecorationGame/keywords'
p630
aS'https://www.appannie.com/apps/google-play/app/com.ids.little.farm.time.fun/keywords'
p631
aS'https://www.appannie.com/apps/google-play/app/com.bucketball.game.android/keywords'
p632
aS'https://www.appannie.com/apps/google-play/app/com.bxapps.PrincessNailSalon/keywords'
p633
aS'https://www.appannie.com/apps/google-play/app/com.Animated.Coloring.Pages.Games.For.Girls/keywords'
p634
aS'https://www.appannie.com/apps/google-play/app/com.gameloft.android.ANMP.GloftL2HM/keywords'
p635
aS'https://www.appannie.com/apps/google-play/app/com.k3games.princessmakeupsalon.free/keywords'
p636
aS'https://www.appannie.com/apps/google-play/app/com.g5e.mahjong.android/keywords'
p637
aS'https://www.appannie.com/apps/google-play/app/com.kiwigo.beautyandbeastmakeup.free/keywords'
p638
aS'https://www.appannie.com/apps/google-play/app/com.mattel.bestjobever/keywords'
p639
aS'https://www.appannie.com/apps/google-play/app/com.spilgames.mydolphinshow/keywords'
p640
aS'https://www.appannie.com/apps/google-play/app/com.gamebuzz.indianmakeupanddressup/keywords'
p641
aS'https://www.appannie.com/apps/google-play/app/com.rovio.angrybirdsstarwarsii.ads/keywords'
p642
aS'https://www.appannie.com/apps/google-play/app/com.disney.frozenletitroll_goo/keywords'
p643
aS'https://www.appannie.com/apps/google-play/app/com.bubadu.buildergame/keywords'
p644
aS'https://www.appannie.com/apps/google-play/app/com.outthinking.SaloneGame/keywords'
p645
aS'https://www.appannie.com/apps/google-play/app/com.cartoonnetwork.asia/keywords'
p646
aS'https://www.appannie.com/apps/google-play/app/com.savgame.candy.blast.legend/keywords'
p647
aS'https://www.appannie.com/apps/google-play/app/air.Newbron.PrincessAndBabymakeupSpa/keywords'
p648
aS'https://www.appannie.com/apps/google-play/app/com.mobileguru.candyjourney.free/keywords'
p649
aS'https://www.appannie.com/apps/google-play/app/com.degoo.android.icecreammaker/keywords'
p650
aS'https://www.appannie.com/apps/google-play/app/com.kauf.princessgamesalonangela3d/keywords'
p651
aS'https://www.appannie.com/apps/google-play/app/com.mewarnai.untukanak.buah/keywords'
p652
aS'https://www.appannie.com/apps/google-play/app/com.appgame7.candyfrenzy/keywords'
p653
aS'https://www.appannie.com/apps/google-play/app/air.com.sfardakh.safr/keywords'
p654
aS'https://www.appannie.com/apps/google-play/app/com.cravecreative.kidscootiecatchersfree/keywords'
p655
aS'https://www.appannie.com/apps/google-play/app/com.gametheory.inidandollmakeover/keywords'
p656
aS'https://www.appannie.com/apps/google-play/app/com.fatcat.SupermaketSmallHeaded/keywords'
p657
aS'https://www.appannie.com/apps/google-play/app/air.com.BurgerShopFastFood/keywords'
p658
aS'https://www.appannie.com/apps/google-play/app/bwebmedia.sandralearnshousecraft/keywords'
p659
aS'https://www.appannie.com/apps/google-play/app/com.linkdesks.iBubble/keywords'
p660
aS'https://www.appannie.com/apps/google-play/app/com.kidsthree.babyfashiontailor/keywords'
p661
aS'https://www.appannie.com/apps/google-play/app/com.kidsfunstudio.water.gun.factory/keywords'
p662
aS'https://www.appannie.com/apps/google-play/app/com.lezhi.PromSalon/keywords'
p663
aS'https://www.appannie.com/apps/google-play/app/com.FoxieGames.DinoWorldOnline/keywords'
p664
aS'https://www.appannie.com/apps/google-play/app/air.worldfashiontrip/keywords'
p665
aS'https://www.appannie.com/apps/google-play/app/com.g6677.android.design/keywords'
p666
aS'https://www.appannie.com/apps/google-play/app/com.twodfunclub.cycle.repair.shop/keywords'
p667
aS'https://www.appannie.com/apps/google-play/app/com.templejunglerun.bigmobi/keywords'
p668
aS'https://www.appannie.com/apps/google-play/app/com.g6677.android.phairsalon/keywords'
p669
aS'https://www.appannie.com/apps/google-play/app/air.com.netfunmedia.fairytaleprincess/keywords'
p670
aS'https://www.appannie.com/apps/google-play/app/com.ea.game.pvz2_row/keywords'
p671
aS'https://www.appannie.com/apps/google-play/app/by.alfasoft.Constructor/keywords'
p672
aS'https://www.appannie.com/apps/google-play/app/com.tabtale.nailfiasco/keywords'
p673
aS'https://www.appannie.com/apps/google-play/app/me.pou.app/keywords'
p674
aS'https://www.appannie.com/apps/google-play/app/com.abto.manicure/keywords'
p675
aS'https://www.appannie.com/apps/google-play/app/com.marknajom.beardsalon/keywords'
p676
aS'https://www.appannie.com/apps/google-play/app/com.tp.android.pfullbodyspa/keywords'
p677
aS'https://www.appannie.com/apps/google-play/app/com.seventwostudios.snowprincesstailorboutique/keywords'
p678
aS'https://www.appannie.com/apps/google-play/app/com.tabtale.myfirstcrush/keywords'
p679
aS'https://www.appannie.com/apps/google-play/app/com.gamoper.sweetcandypop.free/keywords'
p680
aS'https://www.appannie.com/apps/google-play/app/dvortsov.alexey.cinderella2/keywords'
p681
aS'https://www.appannie.com/apps/google-play/app/air.princesscookingfood/keywords'
p682
aS'https://www.appannie.com/apps/google-play/app/com.skigames.indianbeautysalonmakeup2016/keywords'
p683
aS'https://www.appannie.com/apps/google-play/app/com.wjjstudio.sling/keywords'
p684
aS'https://www.appannie.com/apps/google-play/app/com.Mani.Pedi.Toenail.Spa.Game.Hand.Care/keywords'
p685
aS'https://www.appannie.com/apps/google-play/app/com.snk.indonesiandollfashionsalon/keywords'
p686
aS'https://www.appannie.com/apps/google-play/app/com.midasplayer.apps.bubblewitchsaga2/keywords'
p687
aS'https://www.appannie.com/apps/google-play/app/com.crazycatsmedia.android_make_chinesefood/keywords'
p688
aS'https://www.appannie.com/apps/google-play/app/com.honeybadger.armsurgery/keywords'
p689
aS'https://www.appannie.com/apps/google-play/app/com.cocoplay.highschoolcrush/keywords'
p690
aS'https://www.appannie.com/apps/google-play/app/com.bb.mommy.newborn.care/keywords'
p691
aS'https://www.appannie.com/apps/google-play/app/com.beautygirlsinc.android_pimplemakeupsalon/keywords'
p692
aS'https://www.appannie.com/apps/google-play/app/net.makerlabs.android_streetfoodstand/keywords'
p693
aS'https://www.appannie.com/apps/google-play/app/google.free.traindentist.peachygamesllc/keywords'
p694
aS'https://www.appannie.com/apps/google-play/app/bubbleshooter.puzzle/keywords'
p695
aS'https://www.appannie.com/apps/google-play/app/air.com.cocosapps.NurseBathing/keywords'
p696
aS'https://www.appannie.com/apps/google-play/app/com.cocoplay.promqueen/keywords'
p697
aS'https://www.appannie.com/apps/google-play/app/com.lezhi.weddingpreparationsalon/keywords'
p698
aS'https://www.appannie.com/apps/google-play/app/com.k3games.ambulancedoctor.free/keywords'
p699
aS'https://www.appannie.com/apps/google-play/app/com.dong.back.activity/keywords'
p700
aS'https://www.appannie.com/apps/google-play/app/com.nmuluvugoogle.mehndidesigns13/keywords'
p701
aS'https://www.appannie.com/apps/google-play/app/air.restaurantgames/keywords'
p702
aS'https://www.appannie.com/apps/google-play/app/com.nikugames.gaddira/keywords'
p703
aS'https://www.appannie.com/apps/google-play/app/air.IcyQueenspamakeupparty/keywords'
p704
aS'https://www.appannie.com/apps/google-play/app/com.indiangirlmakeover.indianweddingsalon/keywords'
p705
aS'https://www.appannie.com/apps/google-play/app/google.free.supermodel.peachygamesllc/keywords'
p706
aS'https://www.appannie.com/apps/google-play/app/com.fingerscanner.sexyhotnessscan/keywords'
p707
aS'https://www.appannie.com/apps/google-play/app/com.tot.fingerprint.lockscreen/keywords'
p708
aS'https://www.appannie.com/apps/google-play/app/bwebmedia.homedecoration/keywords'
p709
aS'https://www.appannie.com/apps/google-play/app/air.net.endemolgames.flyingteddy/keywords'
p710
aS'https://www.appannie.com/apps/google-play/app/com.gameloft.android.ANMP.GloftGF2F/keywords'
p711
aS'https://www.appannie.com/apps/google-play/app/com.GhostFakeCall/keywords'
p712
aS'https://www.appannie.com/apps/google-play/app/air.babyprincesscaring/keywords'
p713
aS'https://www.appannie.com/apps/google-play/app/net.beautysalongames.android_vampirelovestory/keywords'
p714
aS'https://www.appannie.com/apps/google-play/app/com.tabtale.plasticsurgery/keywords'
p715
aS'https://www.appannie.com/apps/google-play/app/com.fruitcandy.blast/keywords'
p716
aS'https://www.appannie.com/apps/google-play/app/com.plaftalkinggames.talkingelephant/keywords'
p717
aS'https://www.appannie.com/apps/google-play/app/net.m7g7.GirlsHairdresserSalon/keywords'
p718
aS'https://www.appannie.com/apps/google-play/app/com.kidsfunzeal.icee.slushy.mania.frozen.drinks/keywords'
p719
aS'https://www.appannie.com/apps/google-play/app/air.air.BridalShop/keywords'
p720
aS'https://www.appannie.com/apps/google-play/app/xray.ruocco/keywords'
p721
aS'https://www.appannie.com/apps/google-play/app/com.aiapps.ninjahattorifightingrun/keywords'
p722
aS'https://www.appannie.com/apps/google-play/app/air.Class_Room_Fun/keywords'
p723
aS'https://www.appannie.com/apps/google-play/app/com.k3games.airportmanager/keywords'
p724
aS'https://www.appannie.com/apps/google-play/app/bwebmedia.princessfashionsalongame/keywords'
p725
aS'https://www.appannie.com/apps/google-play/app/com.cubicsparrow.icecandymakerkids/keywords'
p726
aS'https://www.appannie.com/apps/google-play/app/com.ramimartin.hundredballs/keywords'
p727
aS'https://www.appannie.com/apps/google-play/app/air.net.purplestudio.TreatmentBabyDoctor/keywords'
p728
aS'https://www.appannie.com/apps/google-play/app/com.funkidsgame.android.throatsurgery/keywords'
p729
aS'https://www.appannie.com/apps/google-play/app/com.animoca.google.starGirl/keywords'
p730
aS'https://www.appannie.com/apps/google-play/app/com.budgestudios.ChuggingtonReadyToBuild/keywords'
p731
aS'https://www.appannie.com/apps/google-play/app/com.k3games.donuthero.free/keywords'
p732
aS'https://www.appannie.com/apps/google-play/app/com.chuggington.teamtrainee/keywords'
p733
aS'https://www.appannie.com/apps/google-play/app/com.rms.gamesforkids.coloring.princess/keywords'
p734
aS'https://www.appannie.com/apps/google-play/app/com.thomsandapps.wheelofsurpriseeggs/keywords'
p735
aS'https://www.appannie.com/apps/google-play/app/com.king.petrescuesaga/keywords'
p736
aS'https://www.appannie.com/apps/google-play/app/air.com.vgv9games.PrincessPartyDressUp/keywords'
p737
aS'https://www.appannie.com/apps/google-play/app/net.fashiondollinc.android_dollcakebakery/keywords'
p738
aS'https://www.appannie.com/apps/google-play/app/com.freakyapps.tailorsupermarketcashregister/keywords'
p739
aS'https://www.appannie.com/apps/google-play/app/com.tp.android.pgrowsup/keywords'
p740
aS'https://www.appannie.com/apps/google-play/app/air.bettyshairsalon/keywords'
p741
aS'https://www.appannie.com/apps/google-play/app/air.trendyhairspa/keywords'
p742
aS'https://www.appannie.com/apps/google-play/app/com.waiterstripgirl.bill/keywords'
p743
aS'https://www.appannie.com/apps/google-play/app/air.mwe.cookingcuteheartcupcakes/keywords'
p744
aS'https://www.appannie.com/apps/google-play/app/com.gameimax.hairdodesign/keywords'
p745
aS'https://www.appannie.com/apps/google-play/app/com.bravokidsmedia.android_pregnant/keywords'
p746
aS'https://www.appannie.com/apps/google-play/app/com.kidsthree.mermaidsalon/keywords'
p747
aS'https://www.appannie.com/apps/google-play/app/air.com.SuperCarWash/keywords'
p748
aS'https://www.appannie.com/apps/google-play/app/com.lezhi.WeddingSpaSalon/keywords'
p749
aS'https://www.appannie.com/apps/google-play/app/com.tabtale.fashionstarfiasco/keywords'
p750
aS'https://www.appannie.com/apps/google-play/app/air.PrincessCastleCakeCookingDecoration/keywords'
p751
aS'https://www.appannie.com/apps/google-play/app/net.purplestudio.MotherBathSalon/keywords'
p752
aS'https://www.appannie.com/apps/google-play/app/net.fashiondollinc.android_shoppingsalon/keywords'
p753
aS'https://www.appannie.com/apps/google-play/app/com.king.farmheroessupersaga/keywords'
p754
aS'https://www.appannie.com/apps/google-play/app/air.Lovelymomandbabycare/keywords'
p755
aS'https://www.appannie.com/apps/google-play/app/com.gobit.burgershop/keywords'
p756
aS'https://www.appannie.com/apps/google-play/app/com.gogo.Fashion.Braid.Hairstyles.Salon/keywords'
p757
aS'https://www.appannie.com/apps/google-play/app/com.funloop.farmhousefamilyvacations/keywords'
p758
aS'https://www.appannie.com/apps/google-play/app/com.eyewind.colorfit.princess/keywords'
p759
aS'https://www.appannie.com/apps/google-play/app/com.gobit.burgershop.ads/keywords'
p760
aS'https://www.appannie.com/apps/google-play/app/com.pjmasks.moonlightheroes/keywords'
p761
aS'https://www.appannie.com/apps/google-play/app/com.k3games.datemakeup.free/keywords'
p762
aS'https://www.appannie.com/apps/google-play/app/air.air.cookingchef/keywords'
p763
aS'https://www.appannie.com/apps/google-play/app/com.dressupone.candyfabric/keywords'
p764
aS'https://www.appannie.com/apps/google-play/app/com.g6677.android.beard/keywords'
p765
aS'https://www.appannie.com/apps/google-play/app/air.com.CookingWeddingCake/keywords'
p766
aS'https://www.appannie.com/apps/google-play/app/com.bubbleshooter.pop.shooter.bubble.free/keywords'
p767
aS'https://www.appannie.com/apps/google-play/app/es.adderit.raildraw/keywords'
p768
aS'https://www.appannie.com/apps/google-play/app/air.funpetwaterpark/keywords'
p769
aS'https://www.appannie.com/apps/google-play/app/com.k3games.eyedoctor.free/keywords'
p770
aS'https://www.appannie.com/apps/google-play/app/com.princessmobileentertainment.android_dogssalon/keywords'
p771
aS'https://www.appannie.com/apps/google-play/app/com.mozgame.sugarsplash/keywords'
p772
aS'https://www.appannie.com/apps/google-play/app/com.ezfunny.jungle.marble.blast/keywords'
p773
aS'https://www.appannie.com/apps/google-play/app/bwebmedia.mermaidsmakeoversalon/keywords'
p774
aS'https://www.appannie.com/apps/google-play/app/com.simplyfunmedia.android_bridalboutique/keywords'
p775
aS'https://www.appannie.com/apps/google-play/app/air.fizizi.PrincessDollFashionDressUpGames/keywords'
p776
aS'https://www.appannie.com/apps/google-play/app/com.bluebodysoft.talkingghost/keywords'
p777
aS'https://www.appannie.com/apps/google-play/app/air.com.netfunmedia.princesscakemaker/keywords'
p778
aS'https://www.appannie.com/apps/google-play/app/com.visiongamingstudio.dolls.cake.maker/keywords'
p779
aS'https://www.appannie.com/apps/google-play/app/com.funtooshstudio.build.a.village/keywords'
p780
aS'https://www.appannie.com/apps/google-play/app/net.makerlabs.android_sweetcottoncandymaker/keywords'
p781
aS'https://www.appannie.com/apps/google-play/app/com.jellybtn.cashkingmobile/keywords'
p782
aS'https://www.appannie.com/apps/google-play/app/com.cookie.crush.maina.jam.candy.free/keywords'
p783
aS'https://www.appannie.com/apps/google-play/app/air.com.Vegetarianchilicookinggame/keywords'
p784
aS'https://www.appannie.com/apps/google-play/app/com.kidsthree.doctormania/keywords'
p785
aS'https://www.appannie.com/apps/google-play/app/com.bxapps.NewbornBabyCare/keywords'
p786
aS'https://www.appannie.com/apps/google-play/app/com.tabtale.fairytalepuzzles/keywords'
p787
aS'https://www.appannie.com/apps/google-play/app/com.k3games.burgershop.free/keywords'
p788
aS'https://www.appannie.com/apps/google-play/app/com.gameiva.powercutactivities/keywords'
p789
aS'https://www.appannie.com/apps/google-play/app/com.cocoplay.cocofitness/keywords'
p790
aS'https://www.appannie.com/apps/google-play/app/air.com.WeddingHairstyleGame/keywords'
p791
aS'https://www.appannie.com/apps/google-play/app/com.kidsfunstudio.supermarket.repair.cleanup/keywords'
p792
aS'https://www.appannie.com/apps/google-play/app/com.mycatemma.virtualpet/keywords'
p793
aS'https://www.appannie.com/apps/google-play/app/com.jaizee.tunnelvision/keywords'
p794
aS'https://www.appannie.com/apps/google-play/app/princess.coloring.book.kids/keywords'
p795
aS'https://www.appannie.com/apps/google-play/app/com.snk.cinderellabeautysalon/keywords'
p796
aS'https://www.appannie.com/apps/google-play/app/com.bearhugmedia.android_longhairwedding/keywords'
p797
aS'https://www.appannie.com/apps/google-play/app/com.woofie.surgery.simulator/keywords'
p798
aS'https://www.appannie.com/apps/google-play/app/air.com.BabyKittyHairSalon/keywords'
p799
aS'https://www.appannie.com/apps/google-play/app/com.mobimonsterit.pickapencil/keywords'
p800
aS'https://www.appannie.com/apps/google-play/app/com.marblelab.jungle.marble.blast/keywords'
p801
aS'https://www.appannie.com/apps/google-play/app/bubbleshooter.pop/keywords'
p802
aS'https://www.appannie.com/apps/google-play/app/com.bubadu.supermarket/keywords'
p803
aS'https://www.appannie.com/apps/google-play/app/com.gameimax.royalprincessfullbodyspa/keywords'
p804
aS'https://www.appannie.com/apps/google-play/app/com.g6677.android.nailmr/keywords'
p805
aS'https://www.appannie.com/apps/google-play/app/air.loveandbloodhe/keywords'
p806
aS'https://www.appannie.com/apps/google-play/app/com.frolicfoxstudio.sports.car.factory/keywords'
p807
aS'https://www.appannie.com/apps/google-play/app/com.cocoplay.iceskater/keywords'
p808
aS'https://www.appannie.com/apps/google-play/app/com.cocoplay.cocoballerina/keywords'
p809
aS'https://www.appannie.com/apps/google-play/app/com.kidsfunstudio.bicycle.factory/keywords'
p810
aS'https://www.appannie.com/apps/google-play/app/com.galbro.faucet/keywords'
p811
aS'https://www.appannie.com/apps/google-play/app/com.Bow3.TheClaw/keywords'
p812
aS'https://www.appannie.com/apps/google-play/app/com.bearhugmedia.android_magichairsalonmakeover/keywords'
p813
aS'https://www.appannie.com/apps/google-play/app/net.beautysalongames.nerdygirllove/keywords'
p814
aS'https://www.appannie.com/apps/google-play/app/com.game.BubbleShooter/keywords'
p815
aS'https://www.appannie.com/apps/google-play/app/com.RoyalGames.TwinsBabyCareAndFeeding/keywords'
p816
aS'https://www.appannie.com/apps/google-play/app/com.onetech.nailsalon/keywords'
p817
aS'https://www.appannie.com/apps/google-play/app/com.short2games.gimmickisland/keywords'
p818
aS'https://www.appannie.com/apps/google-play/app/bwebmedia.princesshairdosalon/keywords'
p819
aS'https://www.appannie.com/apps/google-play/app/com.tipytapy.royal.princess.makeover/keywords'
p820
aS'https://www.appannie.com/apps/google-play/app/com.linkdeskstudio.popcat/keywords'
p821
aS'https://www.appannie.com/apps/google-play/app/com.frozennetworkinc.android_snowconesfrozen/keywords'
p822
aS'https://www.appannie.com/apps/google-play/app/com.markings.candyrain/keywords'
p823
aS'https://www.appannie.com/apps/google-play/app/air.fizizi.PrincessDressUpFashionGames/keywords'
p824
aS'https://www.appannie.com/apps/google-play/app/com.kidsfunstudio.cold.drink.factory/keywords'
p825
aS'https://www.appannie.com/apps/google-play/app/com.kingdom.candycrazysugar.free/keywords'
p826
aS'https://www.appannie.com/apps/google-play/app/com.g6677.android.pmn/keywords'
p827
aS'https://www.appannie.com/apps/google-play/app/com.igames.appleshooter/keywords'
p828
aS'https://www.appannie.com/apps/google-play/app/com.crazycatsmedia.android_make_cake/keywords'
p829
aS'https://www.appannie.com/apps/google-play/app/net.makerlabs.android_fairdeepfriedfood/keywords'
p830
aS'https://www.appannie.com/apps/google-play/app/com.onexsoftech.fakecallprank/keywords'
p831
aS'https://www.appannie.com/apps/google-play/app/com.coba.game.archeryshooting/keywords'
p832
aS'https://www.appannie.com/apps/google-play/app/com.kiwigo.worldfashionmakeup.free/keywords'
p833
aS'https://www.appannie.com/apps/google-play/app/air.ariettascrazyteamcamping/keywords'
p834
aS'https://www.appannie.com/apps/google-play/app/air.com.KidsLearnWithCookingGame/keywords'
p835
aS'https://www.appannie.com/apps/google-play/app/com.k3games.milkshakecookingfever.free/keywords'
p836
aS'https://www.appannie.com/apps/google-play/app/com.candykingdoms.candysogamania/keywords'
p837
aS'https://www.appannie.com/apps/google-play/app/cookie.crush.pop/keywords'
p838
aS'https://www.appannie.com/apps/google-play/app/com.lezhi.indiangirlsalon/keywords'
p839
aS'https://www.appannie.com/apps/google-play/app/air.com.A5mgames.icequeenbeautysalon/keywords'
p840
aS'https://www.appannie.com/apps/google-play/app/com.woofie.megasurgery/keywords'
p841
aS'https://www.appannie.com/apps/google-play/app/com.bravokidsmedia.android_newbornbabymania/keywords'
p842
aS'https://www.appannie.com/apps/google-play/app/com.sofiatech.the_first_dress_up_game_for_princess2/keywords'
p843
aS'https://www.appannie.com/apps/google-play/app/com.mindskydesignlabs.ganeshacolouring/keywords'
p844
aS'https://www.appannie.com/apps/google-play/app/com.magmamobile.game.Burger/keywords'
p845
aS'https://www.appannie.com/apps/google-play/app/com.beautygirlsinc.android_fashiondressdesigner/keywords'
p846
aS'https://www.appannie.com/apps/google-play/app/air.com.winkypinky.princesscastleroom/keywords'
p847
aS'https://www.appannie.com/apps/google-play/app/com.game.bubbleshooter.free/keywords'
p848
aS'https://www.appannie.com/apps/google-play/app/com.bfs.papertoss/keywords'
p849
aS'https://www.appannie.com/apps/google-play/app/com.dexterltd.games.balloon_bow_arrow/keywords'
p850
aS'https://www.appannie.com/apps/google-play/app/com.ea.gp.pvzheroes/keywords'
p851
aS'https://www.appannie.com/apps/google-play/app/com.bluebodysoft.talkingmermaid/keywords'
p852
aS'https://www.appannie.com/apps/google-play/app/bwebmedia.mycoloringbook/keywords'
p853
aS'https://www.appannie.com/apps/google-play/app/air.com.PrincessBathSalon/keywords'
p854
aS'https://www.appannie.com/apps/google-play/app/fivespace.simulator.firecreen/keywords'
p855
aS'https://www.appannie.com/apps/google-play/app/com.bubadu.gardenkids/keywords'
p856
aS'https://www.appannie.com/apps/google-play/app/air.com.CookingColorfulCake/keywords'
p857
aS'https://www.appannie.com/apps/google-play/app/com.gameloft.android.ANMP.GloftIAHM/keywords'
p858
aS'https://www.appannie.com/apps/google-play/app/com.beansprites.supermarketpharmacysimulator/keywords'
p859
aS'https://www.appannie.com/apps/google-play/app/com.mystylinglounge.android_dollgirlsalon/keywords'
p860
aS'https://www.appannie.com/apps/google-play/app/girl_games.mlp.hair_salon.nail_salon.princess_salon.freegame/keywords'
p861
aS'https://www.appannie.com/apps/google-play/app/com.tapblaze.nailsalonmakeover/keywords'
p862
aS'https://www.appannie.com/apps/google-play/app/candy.sweet.fever.match3.free/keywords'
p863
aS'https://www.appannie.com/apps/google-play/app/com.temple.subway.brave.run/keywords'
p864
aS'https://www.appannie.com/apps/google-play/app/air.com.IceCreamConeCupcakesCandy/keywords'
p865
aS'https://www.appannie.com/apps/google-play/app/com.k3games.supermodelsalon.free/keywords'
p866
aS'https://www.appannie.com/apps/google-play/app/com.beautystorygames.android_makeupsalonstars/keywords'
p867
aS'https://www.appannie.com/apps/google-play/app/com.g6677.android.ledoctor/keywords'
p868
aS'https://www.appannie.com/apps/google-play/app/air.baby.MermaidNewbornCare/keywords'
p869
aS'https://www.appannie.com/apps/google-play/app/air.com.babygames.PrincessElsaTwinsCare/keywords'
p870
aS'https://www.appannie.com/apps/google-play/app/es.parrotgames.restaurantcity/keywords'
p871
aS'https://www.appannie.com/apps/google-play/app/com.kidsfunstudio.popcorn.factory/keywords'
p872
aS'https://www.appannie.com/apps/google-play/app/air.com.limetoy.fairyweddingsalon/keywords'
p873
aS'https://www.appannie.com/apps/google-play/app/com.beautygirlsinc.android_lipstickmaker/keywords'
p874
aS'https://www.appannie.com/apps/google-play/app/com.k3games.weddingsalon/keywords'
p875
aS'https://www.appannie.com/apps/google-play/app/com.nenoff.followthelinefree/keywords'
p876
aS'https://www.appannie.com/apps/google-play/app/com.kidsmediainc.android_shoppingmalladventure/keywords'
p877
aS'https://www.appannie.com/apps/google-play/app/com.threesixtyfive.jewels.candymania/keywords'
p878
aS'https://www.appannie.com/apps/google-play/app/com.salonmakeover.pregantmommy/keywords'
p879
aS'https://www.appannie.com/apps/google-play/app/com.frolicfoxstudio.pani.puri.maker/keywords'
p880
aS'https://www.appannie.com/apps/google-play/app/com.tp.android.newborntwin/keywords'
p881
aS'https://www.appannie.com/apps/google-play/app/com.shieldprank.brokenscreen/keywords'
p882
aS'https://www.appannie.com/apps/google-play/app/air.com.CleanUpSpaSalon/keywords'
p883
aS'https://www.appannie.com/apps/google-play/app/air.topcookingrush/keywords'
p884
aS'https://www.appannie.com/apps/google-play/app/com.coloringmobilestudio.boycoloringshinchang/keywords'
p885
aS'https://www.appannie.com/apps/google-play/app/com.tabtale.datenightmare/keywords'
p886
aS'https://www.appannie.com/apps/google-play/app/air.mwe.takingbathforyourcat/keywords'
p887
aS'https://www.appannie.com/apps/google-play/app/air.com.StrawberryShortCake/keywords'
p888
aS'https://www.appannie.com/apps/google-play/app/com.tobiapps.android_100fl/keywords'
p889
aS'https://www.appannie.com/apps/google-play/app/si.pilcom.apps.pizzamakerkids/keywords'
p890
aS'https://www.appannie.com/apps/google-play/app/games.casual.cl/keywords'
p891
aS'https://www.appannie.com/apps/google-play/app/air.Beautifulbridedressup/keywords'
p892
aS'https://www.appannie.com/apps/google-play/app/com.gamegos.mobile.cafeland/keywords'
p893
aS'https://www.appannie.com/apps/google-play/app/com.bitbytestudios.foodfactory/keywords'
p894
aS'https://www.appannie.com/apps/google-play/app/com.coloring.book.animals/keywords'
p895
aS'https://www.appannie.com/apps/google-play/app/air.hairstylefashion/keywords'
p896
aS'https://www.appannie.com/apps/google-play/app/com.kiwigo.littlerepairman.free/keywords'
p897
aS'https://www.appannie.com/apps/google-play/app/com.MobileGeniuses.CandyMatching3/keywords'
p898
aS'https://www.appannie.com/apps/google-play/app/com.yoob.games/keywords'
p899
aS'https://www.appannie.com/apps/google-play/app/com.pooja.TreehouseBuilder/keywords'
p900
aS'https://www.appannie.com/apps/google-play/app/com.foranj.farmtown/keywords'
p901
aS'https://www.appannie.com/apps/google-play/app/com.aavega.jalikattu/keywords'
p902
aS'https://www.appannie.com/apps/google-play/app/air.DentistFear/keywords'
p903
aS'https://www.appannie.com/apps/google-play/app/com.ama.lovetest.calculator/keywords'
p904
aS'https://www.appannie.com/apps/google-play/app/com.g6677.android.cmcg/keywords'
p905
aS'https://www.appannie.com/apps/google-play/app/com.playday.game.medievalFarm.android/keywords'
p906
aS'https://www.appannie.com/apps/google-play/app/com.tp.android.footd/keywords'
p907
aS'https://www.appannie.com/apps/google-play/app/com.bitbytestudios.soupmaker/keywords'
p908
aS'https://www.appannie.com/apps/google-play/app/com.tab2fun.ice.cream.kids.cooking.game/keywords'
p909
aS'https://www.appannie.com/apps/google-play/app/air.girl.TailorDressDesigner/keywords'
p910
aS'https://www.appannie.com/apps/google-play/app/com.rms.gamesforkids.painting.cars/keywords'
p911
aS'https://www.appannie.com/apps/google-play/app/com.funkidsgame.android.fitthesmellyfeet/keywords'
p912
aS'https://www.appannie.com/apps/google-play/app/com.mystylinglounge.android_dreamdollmakeover/keywords'
p913
aS'https://www.appannie.com/apps/google-play/app/com.keladan.fakecall/keywords'
p914
aS'https://www.appannie.com/apps/google-play/app/com.lezhi.bridesmaidsalon/keywords'
p915
aS'https://www.appannie.com/apps/google-play/app/com.funloop.SchoolTripForKids/keywords'
p916
aS'https://www.appannie.com/apps/google-play/app/air.com.winkypinky.dressuproyalprincessdoll/keywords'
p917
aS'https://www.appannie.com/apps/google-play/app/com.bearhugmedia.android_princess_makeover_salon/keywords'
p918
aS'https://www.appannie.com/apps/google-play/app/com.beautygirlsinc.android_younggirlsalon2/keywords'
p919
aS'https://www.appannie.com/apps/google-play/app/com.kidsfunstudio.milk.factory/keywords'
p920
aS'https://www.appannie.com/apps/google-play/app/com.magmamobile.game.Bonneteau/keywords'
p921
aS'https://www.appannie.com/apps/google-play/app/com.bubble.asgame/keywords'
p922
aS'https://www.appannie.com/apps/google-play/app/com.tabtale.donutshop/keywords'
p923
aS'https://www.appannie.com/apps/google-play/app/com.bubbleshooter.farm.shooter.free/keywords'
p924
aS'https://www.appannie.com/apps/google-play/app/com.coloringmobilestudio.coloringkidsdoraemones/keywords'
p925
aS'https://www.appannie.com/apps/google-play/app/com.freakyapps.hotelcleaning/keywords'
p926
aS'https://www.appannie.com/apps/google-play/app/net.purplestudio.WeddingJewerlyShop/keywords'
p927
aS'https://www.appannie.com/apps/google-play/app/com.cocoplay.cocosupermodel/keywords'
p928
aS'https://www.appannie.com/apps/google-play/app/com.bravokidsmedia.android_celebrityemergency/keywords'
p929
aS'https://www.appannie.com/apps/google-play/app/air.cookingapplepie/keywords'
p930
aS'https://www.appannie.com/apps/google-play/app/com.gameimax.princessbeachbeautysalon/keywords'
p931
aS'https://www.appannie.com/apps/google-play/app/com.gamebuzz.puppysalonpetdaycare/keywords'
p932
aS'https://www.appannie.com/apps/google-play/app/com.zynga.FarmVille2CountryEscape/keywords'
p933
aS'https://www.appannie.com/apps/google-play/app/com.funtooshstudio.truck.repair/keywords'
p934
aS'https://www.appannie.com/apps/google-play/app/com.doodlejoy.studio.kidsdoojoy/keywords'
p935
aS'https://www.appannie.com/apps/google-play/app/com.kidsmediainc.android_vacationpassport/keywords'
p936
aS'https://www.appannie.com/apps/google-play/app/com.kidsthree.icecreammaster/keywords'
p937
aS'https://www.appannie.com/apps/google-play/app/com.gameloft.android.ANMP.GloftZRHM/keywords'
p938
aS'https://www.appannie.com/apps/google-play/app/com.freakyapps.braidedhairstylesgirlsgames/keywords'
p939
aS'https://www.appannie.com/apps/google-play/app/com.tabtale.beachparty/keywords'
p940
aS'https://www.appannie.com/apps/google-play/app/com.kidsfunstudio.icecream.factory2/keywords'
p941
aS'https://www.appannie.com/apps/google-play/app/tic.tac.toe.games.tictactoe.puzzle.free/keywords'
p942
aS'https://www.appannie.com/apps/google-play/app/com.sevelina.icywedding/keywords'
p943
aS'https://www.appannie.com/apps/google-play/app/com.appon.kitchenstory/keywords'
p944
aS'https://www.appannie.com/apps/google-play/app/com.mobileguru.fruitboom.free/keywords'
p945
aS'https://www.appannie.com/apps/google-play/app/com.bubble.shoot.bubbles.shooter.blast.game.free/keywords'
p946
aS'https://www.appannie.com/apps/google-play/app/se.ace.whatif/keywords'
p947
aS'https://www.appannie.com/apps/google-play/app/com.tp.android.emergencysurgery/keywords'
p948
aS'https://www.appannie.com/apps/google-play/app/likrishmm.likrishmm/keywords'
p949
aS'https://www.appannie.com/apps/google-play/app/com.bubble.shoot.shootbubble.classicbubble.free/keywords'
p950
aS'https://www.appannie.com/apps/google-play/app/com.funkidsgame.android.earsurgery/keywords'
p951
aS'https://www.appannie.com/apps/google-play/app/fever.bubble.shooter/keywords'
p952
aS'https://www.appannie.com/apps/google-play/app/com.bravokidsmedia.android_summerdoctor/keywords'
p953
aS'https://www.appannie.com/apps/google-play/app/com.color.mandala/keywords'
p954
aS'https://www.appannie.com/apps/google-play/app/com.babyaadhya.aadhyasgoodnight/keywords'
p955
aS'https://www.appannie.com/apps/google-play/app/com.gameimax.naildoctor/keywords'
p956
aS'https://www.appannie.com/apps/google-play/app/com.pirasmani.android.makeup2_free/keywords'
p957
aS'https://www.appannie.com/apps/google-play/app/air.com.FastFoodRestaurant/keywords'
p958
aS'https://www.appannie.com/apps/google-play/app/air.com.winkypinky.gardendecoration/keywords'
p959
aS'https://www.appannie.com/apps/google-play/app/com.IceCreamCashRegister/keywords'
p960
aS'https://www.appannie.com/apps/google-play/app/bwebmedia.cookingdonuts/keywords'
p961
aS'https://www.appannie.com/apps/google-play/app/com.g6677.android.pnailspa/keywords'
p962
aS'https://www.appannie.com/apps/google-play/app/ammanify.apps.coloring_for_kids/keywords'
p963
aS'https://www.appannie.com/apps/google-play/app/bwebmedia.cookingrainbowbirthdaycake/keywords'
p964
aS'https://www.appannie.com/apps/google-play/app/com.bxapps.SchoolPizzaDelivery/keywords'
p965
aS'https://www.appannie.com/apps/google-play/app/com.tamalaki.hogmysterysociety/keywords'
p966
aS'https://www.appannie.com/apps/google-play/app/air.air.savethefarm/keywords'
p967
aS'https://www.appannie.com/apps/google-play/app/com.arthisoft.fashiondollmakeover/keywords'
p968
aS'https://www.appannie.com/apps/google-play/app/com.appphobia.fakegirlfriendcallprank/keywords'
p969
aS'https://www.appannie.com/apps/google-play/app/com.gamesomini.duckhunting/keywords'
p970
aS'https://www.appannie.com/apps/google-play/app/com.sevelina.frozenland/keywords'
p971
aS'https://www.appannie.com/apps/google-play/app/com.tgg.pregnantmommyemergency/keywords'
p972
aS'https://www.appannie.com/apps/google-play/app/com.snk.iceprincessmakeover/keywords'
p973
aS'https://www.appannie.com/apps/google-play/app/air.bwebmedia.candycakemaker/keywords'
p974
aS'https://www.appannie.com/apps/google-play/app/com.tp.android.bffnewbaby/keywords'
p975
aS'https://www.appannie.com/apps/google-play/app/com.hapogames.BubbleParadise/keywords'
p976
aS'https://www.appannie.com/apps/google-play/app/com.marothiatechs.stonepillar/keywords'
p977
aS'https://www.appannie.com/apps/google-play/app/air.MakeupDivaSalon/keywords'
p978
aS'https://www.appannie.com/apps/google-play/app/com.cocoplay.weddingplanner/keywords'
p979
aS'https://www.appannie.com/apps/google-play/app/com.g6677.android.princessspas/keywords'
p980
aS'https://www.appannie.com/apps/google-play/app/com.budgestudios.BarbieMagicalFashion/keywords'
p981
aS'https://www.appannie.com/apps/google-play/app/com.mtsfreegames.bottleshootinggames/keywords'
p982
aS'https://www.appannie.com/apps/google-play/app/com.amusingapps.radha.krishna.dressup/keywords'
p983
aS'https://www.appannie.com/apps/google-play/app/bwebmedia.conecupcakesmaker/keywords'
p984
aS'https://www.appannie.com/apps/google-play/app/com.gamoper.sweetgardenfruit.free/keywords'
p985
aS'https://www.appannie.com/apps/google-play/app/com.popreach.dumbways/keywords'
p986
aS'https://www.appannie.com/apps/google-play/app/com.funkidsgame.android.newbornbabystory2/keywords'
p987
aS'https://www.appannie.com/apps/google-play/app/com.jokerkidsgame.PrincessPromNight/keywords'
p988
aS'https://www.appannie.com/apps/google-play/app/com.gizapps.unicorndash/keywords'
p989
aS'https://www.appannie.com/apps/google-play/app/com.popcornmakergames.PopcornFactory/keywords'
p990
aS'https://www.appannie.com/apps/google-play/app/com.microcookinggames.justfajitas/keywords'
p991
aS'https://www.appannie.com/apps/google-play/app/ideamk.com.surpriseeggs/keywords'
p992
aS'https://www.appannie.com/apps/google-play/app/com.hugsnhearts.android_modernprincessteaparty/keywords'
p993
aS'https://www.appannie.com/apps/google-play/app/com.mobzapp.voicefx/keywords'
p994
aS'https://www.appannie.com/apps/google-play/app/com.alexkoi.baby/keywords'
p995
aS'https://www.appannie.com/apps/google-play/app/com.dressupone.bakecupcakes/keywords'
p996
aS'https://www.appannie.com/apps/google-play/app/org.friends.funnybest/keywords'
p997
aS'https://www.appannie.com/apps/google-play/app/org.orangenose.games/keywords'
p998
a.