(lp0
S'https://www.appannie.com/apps/google-play/app/com.instagram.android/keywords/#countries=TW'
p1
aS'https://www.appannie.com/apps/google-play/app/com.facebook.katana/keywords/#countries=TW'
p2
aS'https://www.appannie.com/apps/google-play/app/com.asiainno.uplive.taiwan/keywords/#countries=TW'
p3
aS'https://www.appannie.com/apps/google-play/app/com.machipopo.media17/keywords/#countries=TW'
p4
aS'https://www.appannie.com/apps/google-play/app/com.facebook.lite/keywords/#countries=TW'
p5
aS'https://www.appannie.com/apps/google-play/app/com.asiainno.uplive/keywords/#countries=TW'
p6
aS'https://www.appannie.com/apps/google-play/app/com.lang.lang/keywords/#countries=TW'
p7
aS'https://www.appannie.com/apps/google-play/app/kr.co.vcnc.android.couple/keywords/#countries=TW'
p8
aS'https://www.appannie.com/apps/google-play/app/com.tiange.mlivezm/keywords/#countries=TW'
p9
aS'https://www.appannie.com/apps/google-play/app/chat.meme.inke/keywords/#countries=TW'
p10
aS'https://www.appannie.com/apps/google-play/app/com.beetalk/keywords/#countries=TW'
p11
aS'https://www.appannie.com/apps/google-play/app/com.frienzyme.a/keywords/#countries=TW'
p12
aS'https://www.appannie.com/apps/google-play/app/today.wootalk.mobile/keywords/#countries=TW'
p13
aS'https://www.appannie.com/apps/google-play/app/tw.jasoncheng.holi/keywords/#countries=TW'
p14
aS'https://www.appannie.com/apps/google-play/app/com.sina.weibo/keywords/#countries=TW'
p15
aS'https://www.appannie.com/apps/google-play/app/com.one.goodnight/keywords/#countries=TW'
p16
aS'https://www.appannie.com/apps/google-play/app/com.twodate.app/keywords/#countries=TW'
p17
aS'https://www.appannie.com/apps/google-play/app/com.partido/keywords/#countries=TW'
p18
aS'https://www.appannie.com/apps/google-play/app/com.pinterest/keywords/#countries=TW'
p19
aS'https://www.appannie.com/apps/google-play/app/com.tumblr/keywords/#countries=TW'
p20
aS'https://www.appannie.com/apps/google-play/app/sg.bigo.live/keywords/#countries=TW'
p21
aS'https://www.appannie.com/apps/google-play/app/com.cmcm.live/keywords/#countries=TW'
p22
aS'https://www.appannie.com/apps/google-play/app/im.linking.friends/keywords/#countries=TW'
p23
aS'https://www.appannie.com/apps/google-play/app/com.raidcall/keywords/#countries=TW'
p24
aS'https://www.appannie.com/apps/google-play/app/com.snapchat.android/keywords/#countries=TW'
p25
aS'https://www.appannie.com/apps/google-play/app/tw.chiae.inlive/keywords/#countries=TW'
p26
aS'https://www.appannie.com/apps/google-play/app/com.skout.android/keywords/#countries=TW'
p27
aS'https://www.appannie.com/apps/google-play/app/com.mobile01.android.forum/keywords/#countries=TW'
p28
aS'https://www.appannie.com/apps/google-play/app/jp.naver.lineplay.android/keywords/#countries=TW'
p29
aS'https://www.appannie.com/apps/google-play/app/com.google.android.apps.plus/keywords/#countries=TW'
p30
aS'https://www.appannie.com/apps/google-play/app/com.myyearbook.m/keywords/#countries=TW'
p31
aS'https://www.appannie.com/apps/google-play/app/com.skyfireapps.followersinsightapp/keywords/#countries=TW'
p32
aS'https://www.appannie.com/apps/google-play/app/com.newfun.noresponse/keywords/#countries=TW'
p33
aS'https://www.appannie.com/apps/google-play/app/com.unearby.sayhi/keywords/#countries=TW'
p34
aS'https://www.appannie.com/apps/google-play/app/com.holiestep.msgpeepingtom/keywords/#countries=TW'
p35
aS'https://www.appannie.com/apps/google-play/app/whitebird.ptt_now/keywords/#countries=TW'
p36
aS'https://www.appannie.com/apps/google-play/app/com.weico.international/keywords/#countries=TW'
p37
aS'https://www.appannie.com/apps/google-play/app/com.loudtalks/keywords/#countries=TW'
p38
aS'https://www.appannie.com/apps/google-play/app/com.zhiliaoapp.musically/keywords/#countries=TW'
p39
aS'https://www.appannie.com/apps/google-play/app/com.nhn.android.band/keywords/#countries=TW'
p40
aS'https://www.appannie.com/apps/google-play/app/com.exutech.chacha/keywords/#countries=TW'
p41
aS'https://www.appannie.com/apps/google-play/app/com.zzzjxc.saymeetnew/keywords/#countries=TW'
p42
aS'https://www.appannie.com/apps/google-play/app/sk.forbis.messenger/keywords/#countries=TW'
p43
aS'https://www.appannie.com/apps/google-play/app/com.ihad.ptt/keywords/#countries=TW'
p44
aS'https://www.appannie.com/apps/google-play/app/com.badoo.mobile/keywords/#countries=TW'
p45
aS'https://www.appannie.com/apps/google-play/app/fast.explorer.web.browser/keywords/#countries=TW'
p46
aS'https://www.appannie.com/apps/google-play/app/com.facebook.groups/keywords/#countries=TW'
p47
aS'https://www.appannie.com/apps/google-play/app/com.sgiggle.production/keywords/#countries=TW'
p48
aS'https://www.appannie.com/apps/google-play/app/com.HachigoKenjo.GmnTelugu/keywords/#countries=TW'
p49
aS'https://www.appannie.com/apps/google-play/app/com.sunfun.wetouch/keywords/#countries=TW'
p50
aS'https://www.appannie.com/apps/google-play/app/com.jookershop.italk/keywords/#countries=TW'
p51
aS'https://www.appannie.com/apps/google-play/app/com.jiecode.ptt/keywords/#countries=TW'
p52
aS'https://www.appannie.com/apps/google-play/app/com.media17.lit/keywords/#countries=TW'
p53
aS'https://www.appannie.com/apps/google-play/app/com.jshon.zhaolaowai/keywords/#countries=TW'
p54
aS'https://www.appannie.com/apps/google-play/app/com.tappple.followersplus/keywords/#countries=TW'
p55
aS'https://www.appannie.com/apps/google-play/app/huboo.android/keywords/#countries=TW'
p56
aS'https://www.appannie.com/apps/google-play/app/com.linkedin.android/keywords/#countries=TW'
p57
aS'https://www.appannie.com/apps/google-play/app/com.joshua.jptt/keywords/#countries=TW'
p58
aS'https://www.appannie.com/apps/google-play/app/net.iaround/keywords/#countries=TW'
p59
aS'https://www.appannie.com/apps/google-play/app/com.jshon.perdateenhance/keywords/#countries=TW'
p60
aS'https://www.appannie.com/apps/google-play/app/com.mico/keywords/#countries=TW'
p61
aS'https://www.appannie.com/apps/google-play/app/com.machipopo.swag/keywords/#countries=TW'
p62
aS'https://www.appannie.com/apps/google-play/app/com.parallel.space.lite/keywords/#countries=TW'
p63
aS'https://www.appannie.com/apps/google-play/app/jp.pxv.android/keywords/#countries=TW'
p64
aS'https://www.appannie.com/apps/google-play/app/secure.explorer.web.browser/keywords/#countries=TW'
p65
aS'https://www.appannie.com/apps/google-play/app/com.fsp.android.friendlocator/keywords/#countries=TW'
p66
aS'https://www.appannie.com/apps/google-play/app/easydating.com.eddate/keywords/#countries=TW'
p67
aS'https://www.appannie.com/apps/google-play/app/com.lavendrapp.lavendr/keywords/#countries=TW'
p68
aS'https://www.appannie.com/apps/google-play/app/com.bubboe.ryze/keywords/#countries=TW'
p69
aS'https://www.appannie.com/apps/google-play/app/com.asiainno.uplive.yiqi/keywords/#countries=TW'
p70
aS'https://www.appannie.com/apps/google-play/app/com.facebook.Mentions/keywords/#countries=TW'
p71
aS'https://www.appannie.com/apps/google-play/app/com.igg.android.wegamers/keywords/#countries=TW'
p72
aS'https://www.appannie.com/apps/google-play/app/chat.divorcedatingandmatch/keywords/#countries=TW'
p73
aS'https://www.appannie.com/apps/google-play/app/com.hornet.android/keywords/#countries=TW'
p74
aS'https://www.appannie.com/apps/google-play/app/tv.periscope.android/keywords/#countries=TW'
p75
aS'https://www.appannie.com/apps/google-play/app/com.kakafun.tw2hand/keywords/#countries=TW'
p76
aS'https://www.appannie.com/apps/google-play/app/club.futurenet.futurenetclub/keywords/#countries=TW'
p77
aS'https://www.appannie.com/apps/google-play/app/com.dating.party/keywords/#countries=TW'
p78
aS'https://www.appannie.com/apps/google-play/app/com.redwolfama.peonylespark.gp/keywords/#countries=TW'
p79
aS'https://www.appannie.com/apps/google-play/app/cn.orangelab.werewolf/keywords/#countries=TW'
p80
aS'https://www.appannie.com/apps/google-play/app/com.jaumo/keywords/#countries=TW'
p81
aS'https://www.appannie.com/apps/google-play/app/app.honestly/keywords/#countries=TW'
p82
aS'https://www.appannie.com/apps/google-play/app/net.pixnet.android.panel/keywords/#countries=TW'
p83
aS'https://www.appannie.com/apps/google-play/app/com.lofter.android/keywords/#countries=TW'
p84
aS'https://www.appannie.com/apps/google-play/app/com.fsp.android.c/keywords/#countries=TW'
p85
aS'https://www.appannie.com/apps/google-play/app/com.sntown.messengerpal/keywords/#countries=TW'
p86
aS'https://www.appannie.com/apps/google-play/app/com.askfm/keywords/#countries=TW'
p87
aS'https://www.appannie.com/apps/google-play/app/tv.shou.android/keywords/#countries=TW'
p88
aS'https://www.appannie.com/apps/google-play/app/com.immomo.momo/keywords/#countries=TW'
p89
aS'https://www.appannie.com/apps/google-play/app/com.wanttalk/keywords/#countries=TW'
p90
aS'https://www.appannie.com/apps/google-play/app/com.plurk.android/keywords/#countries=TW'
p91
aS'https://www.appannie.com/apps/google-play/app/com.hi5.app/keywords/#countries=TW'
p92
aS'https://www.appannie.com/apps/google-play/app/com.altrthink.hitmeup/keywords/#countries=TW'
p93
aS'https://www.appannie.com/apps/google-play/app/com.douban.frodo/keywords/#countries=TW'
p94
aS'https://www.appannie.com/apps/google-play/app/com.jaumo.lesbian/keywords/#countries=TW'
p95
aS'https://www.appannie.com/apps/google-play/app/com.grindrapp.android/keywords/#countries=TW'
p96
aS'https://www.appannie.com/apps/google-play/app/com.explore.web.browser/keywords/#countries=TW'
p97
aS'https://www.appannie.com/apps/google-play/app/com.jieapp.notificationmessager/keywords/#countries=TW'
p98
aS'https://www.appannie.com/apps/google-play/app/mobi.jackd.android/keywords/#countries=TW'
p99
aS'https://www.appannie.com/apps/google-play/app/com.frenclub.fcsocial/keywords/#countries=TW'
p100
aS'https://www.appannie.com/apps/google-play/app/com.monee.zhufuyu/keywords/#countries=TW'
p101
aS'https://www.appannie.com/apps/google-play/app/com.waplog.social/keywords/#countries=TW'
p102
aS'https://www.appannie.com/apps/google-play/app/com.another.eyny/keywords/#countries=TW'
p103
aS'https://www.appannie.com/apps/google-play/app/com.jaumo.gay/keywords/#countries=TW'
p104
aS'https://www.appannie.com/apps/google-play/app/com.tencent.mtt/keywords/#countries=TW'
p105
aS'https://www.appannie.com/apps/google-play/app/com.jookershop.crazyfriend/keywords/#countries=TW'
p106
aS'https://www.appannie.com/apps/google-play/app/com.taptrip/keywords/#countries=TW'
p107
aS'https://www.appannie.com/apps/google-play/app/free.emoticons.tiger.tw/keywords/#countries=TW'
p108
aS'https://www.appannie.com/apps/google-play/app/com.myApp.App.WoWoTalk/keywords/#countries=TW'
p109
aS'https://www.appannie.com/apps/google-play/app/com.mlhg.pttreader/keywords/#countries=TW'
p110
aS'https://www.appannie.com/apps/google-play/app/ru.kidcontrol.gpstracker/keywords/#countries=TW'
p111
aS'https://www.appannie.com/apps/google-play/app/com.stupeflix.legend/keywords/#countries=TW'
p112
aS'https://www.appannie.com/apps/google-play/app/com.p1.mobile.putong/keywords/#countries=TW'
p113
aS'https://www.appannie.com/apps/google-play/app/com.im.ee.android/keywords/#countries=TW'
p114
aS'https://www.appannie.com/apps/google-play/app/com.mj.crl/keywords/#countries=TW'
p115
aS'https://www.appannie.com/apps/google-play/app/com.sntown.snchat/keywords/#countries=TW'
p116
aS'https://www.appannie.com/apps/google-play/app/com.futurebits.instamessage.free/keywords/#countries=TW'
p117
aS'https://www.appannie.com/apps/google-play/app/com.kepchat.androidv3/keywords/#countries=TW'
p118
aS'https://www.appannie.com/apps/google-play/app/com.taggedapp/keywords/#countries=TW'
p119
aS'https://www.appannie.com/apps/google-play/app/com.likesfamousapp/keywords/#countries=TW'
p120
aS'https://www.appannie.com/apps/google-play/app/com.sabagadev.whoviewedmyprofile/keywords/#countries=TW'
p121
aS'https://www.appannie.com/apps/google-play/app/com.HachigoKenjo.BestWishesOnBirthday/keywords/#countries=TW'
p122
aS'https://www.appannie.com/apps/google-play/app/net.connexionone.android.xone/keywords/#countries=TW'
p123
aS'https://www.appannie.com/apps/google-play/app/me.dingtone.app.im/keywords/#countries=TW'
p124
aS'https://www.appannie.com/apps/google-play/app/com.kurtyu.offline/keywords/#countries=TW'
p125
aS'https://www.appannie.com/apps/google-play/app/it.bjarn.android.subscribercount/keywords/#countries=TW'
p126
aS'https://www.appannie.com/apps/google-play/app/com.minus.lovershouse/keywords/#countries=TW'
p127
aS'https://www.appannie.com/apps/google-play/app/free.emoticons.kittycatTW/keywords/#countries=TW'
p128
aS'https://www.appannie.com/apps/google-play/app/com.myApp.App2.OneChat/keywords/#countries=TW'
p129
aS'https://www.appannie.com/apps/google-play/app/com.mmb.mamitalk/keywords/#countries=TW'
p130
aS'https://www.appannie.com/apps/google-play/app/com.stakkfactory.mate/keywords/#countries=TW'
p131
aS'https://www.appannie.com/apps/google-play/app/co.kr.justfriend/keywords/#countries=TW'
p132
aS'https://www.appannie.com/apps/google-play/app/ru.mamba.client/keywords/#countries=TW'
p133
aS'https://www.appannie.com/apps/google-play/app/com.asus.zencircle/keywords/#countries=TW'
p134
aS'https://www.appannie.com/apps/google-play/app/com.zhihu.android/keywords/#countries=TW'
p135
aS'https://www.appannie.com/apps/google-play/app/com.welove520.welove/keywords/#countries=TW'
p136
aS'https://www.appannie.com/apps/google-play/app/com.xuite.myXuite/keywords/#countries=TW'
p137
aS'https://www.appannie.com/apps/google-play/app/com.jookershop.ocircle/keywords/#countries=TW'
p138
aS'https://www.appannie.com/apps/google-play/app/com.tozelabs.tvshowtime/keywords/#countries=TW'
p139
aS'https://www.appannie.com/apps/google-play/app/com.chatous.chatous/keywords/#countries=TW'
p140
aS'https://www.appannie.com/apps/google-play/app/com.pttplus/keywords/#countries=TW'
p141
aS'https://www.appannie.com/apps/google-play/app/com.noyesrun.meeff.kr/keywords/#countries=TW'
p142
aS'https://www.appannie.com/apps/google-play/app/com.google.android.apps.blogger/keywords/#countries=TW'
p143
aS'https://www.appannie.com/apps/google-play/app/net.daum.android.cafe/keywords/#countries=TW'
p144
aS'https://www.appannie.com/apps/google-play/app/com.kayac.nakamap/keywords/#countries=TW'
p145
aS'https://www.appannie.com/apps/google-play/app/com.camshare.camfrog.android/keywords/#countries=TW'
p146
aS'https://www.appannie.com/apps/google-play/app/com.jham.happybirthday/keywords/#countries=TW'
p147
aS'https://www.appannie.com/apps/google-play/app/com.who.viewed.likes.stalks.me.on.my.profile/keywords/#countries=TW'
p148
aS'https://www.appannie.com/apps/google-play/app/com.girlme.live18.video.streaming.show/keywords/#countries=TW'
p149
aS'https://www.appannie.com/apps/google-play/app/com.hellopal.android/keywords/#countries=TW'
p150
aS'https://www.appannie.com/apps/google-play/app/com.yomeet.yomeet/keywords/#countries=TW'
p151
aS'https://www.appannie.com/apps/google-play/app/com.redcactus.repost/keywords/#countries=TW'
p152
aS'https://www.appannie.com/apps/google-play/app/com.livework.livegirl.video.chat/keywords/#countries=TW'
p153
aS'https://www.appannie.com/apps/google-play/app/com.startup168/keywords/#countries=TW'
p154
aS'https://www.appannie.com/apps/google-play/app/com.HachigoKenjo.GMNChinese/keywords/#countries=TW'
p155
aS'https://www.appannie.com/apps/google-play/app/wei.talktalk/keywords/#countries=TW'
p156
aS'https://www.appannie.com/apps/google-play/app/socil.netw.com/keywords/#countries=TW'
p157
aS'https://www.appannie.com/apps/google-play/app/pumpkin.android.truth_or_dare_free_cn/keywords/#countries=TW'
p158
aS'https://www.appannie.com/apps/google-play/app/com.weheartit/keywords/#countries=TW'
p159
aS'https://www.appannie.com/apps/google-play/app/jp.co.applibros.alligatorxx/keywords/#countries=TW'
p160
aS'https://www.appannie.com/apps/google-play/app/com.appspot.scruffapp/keywords/#countries=TW'
p161
aS'https://www.appannie.com/apps/google-play/app/com.whoviewedmy.profile.fbook/keywords/#countries=TW'
p162
aS'https://www.appannie.com/apps/google-play/app/com.wisescott.breezeptt/keywords/#countries=TW'
p163
aS'https://www.appannie.com/apps/google-play/app/com.sgiggle.mango/keywords/#countries=TW'
p164
aS'https://www.appannie.com/apps/google-play/app/com.wali.live/keywords/#countries=TW'
p165
aS'https://www.appannie.com/apps/google-play/app/me.msqrd.android/keywords/#countries=TW'
p166
aS'https://www.appannie.com/apps/google-play/app/net.imusic.android.dokidoki/keywords/#countries=TW'
p167
aS'https://www.appannie.com/apps/google-play/app/tw.com.afreecatv.android/keywords/#countries=TW'
p168
aS'https://www.appannie.com/apps/google-play/app/com.surgeapp.grizzly/keywords/#countries=TW'
p169
aS'https://www.appannie.com/apps/google-play/app/free.emoticons.ribbon/keywords/#countries=TW'
p170
aS'https://www.appannie.com/apps/google-play/app/com.zoosk.zoosk/keywords/#countries=TW'
p171
aS'https://www.appannie.com/apps/google-play/app/com.jookershop.moretalk/keywords/#countries=TW'
p172
aS'https://www.appannie.com/apps/google-play/app/com.wonderabbit.couplete/keywords/#countries=TW'
p173
aS'https://www.appannie.com/apps/google-play/app/com.asiainno.uplive.hongkong/keywords/#countries=TW'
p174
aS'https://www.appannie.com/apps/google-play/app/com.mywickr.wickr2/keywords/#countries=TW'
p175
aS'https://www.appannie.com/apps/google-play/app/com.asus.server.azs/keywords/#countries=TW'
p176
aS'https://www.appannie.com/apps/google-play/app/com.life.messenger/keywords/#countries=TW'
p177
aS'https://www.appannie.com/apps/google-play/app/free.emoticons.whitekitty.tw/keywords/#countries=TW'
p178
aS'https://www.appannie.com/apps/google-play/app/com.HachigoKenjo.masterguruquotes/keywords/#countries=TW'
p179
aS'https://www.appannie.com/apps/google-play/app/free.emoticons.shironeko.tw/keywords/#countries=TW'
p180
aS'https://www.appannie.com/apps/google-play/app/com.narvii.amino.x195570892/keywords/#countries=TW'
p181
aS'https://www.appannie.com/apps/google-play/app/me.soocii.socius/keywords/#countries=TW'
p182
aS'https://www.appannie.com/apps/google-play/app/tv.deshow.videostream/keywords/#countries=TW'
p183
aS'https://www.appannie.com/apps/google-play/app/com.oovoo/keywords/#countries=TW'
p184
aS'https://www.appannie.com/apps/google-play/app/com.lessiastar.groupvideochatlive/keywords/#countries=TW'
p185
aS'https://www.appannie.com/apps/google-play/app/com.girlme.streaming.video.show.live/keywords/#countries=TW'
p186
aS'https://www.appannie.com/apps/google-play/app/com.sayhi.plugin.moxi/keywords/#countries=TW'
p187
aS'https://www.appannie.com/apps/google-play/app/tw.com.goalsoft.liveany/keywords/#countries=TW'
p188
aS'https://www.appannie.com/apps/google-play/app/com.waplogmatch.social/keywords/#countries=TW'
p189
aS'https://www.appannie.com/apps/google-play/app/com.peter.images/keywords/#countries=TW'
p190
aS'https://www.appannie.com/apps/google-play/app/free.emoticons.happypenguin.tw/keywords/#countries=TW'
p191
aS'https://www.appannie.com/apps/google-play/app/com.asus.zentalk/keywords/#countries=TW'
p192
aS'https://www.appannie.com/apps/google-play/app/cn.myhug.fastlove/keywords/#countries=TW'
p193
aS'https://www.appannie.com/apps/google-play/app/ichtech.snapshots/keywords/#countries=TW'
p194
aS'https://www.appannie.com/apps/google-play/app/com.blive.devlosoum65789/keywords/#countries=TW'
p195
aS'https://www.appannie.com/apps/google-play/app/com.shengjuntech.im/keywords/#countries=TW'
p196
aS'https://www.appannie.com/apps/google-play/app/tw.bingfeng.bingfeng/keywords/#countries=TW'
p197
aS'https://www.appannie.com/apps/google-play/app/com.hpyshark.banana/keywords/#countries=TW'
p198
aS'https://www.appannie.com/apps/google-play/app/com.dotanime.animewallfullhd/keywords/#countries=TW'
p199
aS'https://www.appannie.com/apps/google-play/app/com.probits.argo/keywords/#countries=TW'
p200
aS'https://www.appannie.com/apps/google-play/app/com.narvii.amino.x229068291/keywords/#countries=TW'
p201
aS'https://www.appannie.com/apps/google-play/app/com.keyboard.emojiplugin.samemoji/keywords/#countries=TW'
p202
aS'https://www.appannie.com/apps/google-play/app/com.thevoicelover.app/keywords/#countries=TW'
p203
aS'https://www.appannie.com/apps/google-play/app/com.synergetechsolutions.nearbylive/keywords/#countries=TW'
p204
aS'https://www.appannie.com/apps/google-play/app/com.intern.ab.starwish/keywords/#countries=TW'
p205
aS'https://www.appannie.com/apps/google-play/app/com.planetromeo.android.app/keywords/#countries=TW'
p206
aS'https://www.appannie.com/apps/google-play/app/org.wordpress.android/keywords/#countries=TW'
p207
aS'https://www.appannie.com/apps/google-play/app/com.xiaoenai.app/keywords/#countries=TW'
p208
aS'https://www.appannie.com/apps/google-play/app/com.monsgroup.dongnaemon.android/keywords/#countries=TW'
p209
aS'https://www.appannie.com/apps/google-play/app/com.trustmobi.mixin.app/keywords/#countries=TW'
p210
aS'https://www.appannie.com/apps/google-play/app/com.wakie.android/keywords/#countries=TW'
p211
aS'https://www.appannie.com/apps/google-play/app/us.fc2.thebbs/keywords/#countries=TW'
p212
aS'https://www.appannie.com/apps/google-play/app/com.xiaomi.channel/keywords/#countries=TW'
p213
aS'https://www.appannie.com/apps/google-play/app/com.lesdo.sns.playstore/keywords/#countries=TW'
p214
aS'https://www.appannie.com/apps/google-play/app/com.obvyah.ptt/keywords/#countries=TW'
p215
aS'https://www.appannie.com/apps/google-play/app/com.almiracreative.kataucapanselamatpuasa/keywords/#countries=TW'
p216
aS'https://www.appannie.com/apps/google-play/app/com.reizapps.whoviewed.facebook/keywords/#countries=TW'
p217
aS'https://www.appannie.com/apps/google-play/app/com.HachigoKenjo.GmnFrench/keywords/#countries=TW'
p218
aS'https://www.appannie.com/apps/google-play/app/com.zhiliaoapp.musicallylite/keywords/#countries=TW'
p219
aS'https://www.appannie.com/apps/google-play/app/com.kickstarter.kickstarter/keywords/#countries=TW'
p220
aS'https://www.appannie.com/apps/google-play/app/com.meetup/keywords/#countries=TW'
p221
aS'https://www.appannie.com/apps/google-play/app/free.emoticons.blackpug.tw/keywords/#countries=TW'
p222
aS'https://www.appannie.com/apps/google-play/app/com.hans.whowatch/keywords/#countries=TW'
p223
aS'https://www.appannie.com/apps/google-play/app/com.leon456.chatwithgay/keywords/#countries=TW'
p224
aS'https://www.appannie.com/apps/google-play/app/com.instaview.app/keywords/#countries=TW'
p225
aS'https://www.appannie.com/apps/google-play/app/io.agora.vlive/keywords/#countries=TW'
p226
aS'https://www.appannie.com/apps/google-play/app/com.peter.animatedsticker/keywords/#countries=TW'
p227
aS'https://www.appannie.com/apps/google-play/app/com.tencent.livemaster/keywords/#countries=TW'
p228
aS'https://www.appannie.com/apps/google-play/app/me.rooit/keywords/#countries=TW'
p229
aS'https://www.appannie.com/apps/google-play/app/vulcanweblabs.realtimeyoutube/keywords/#countries=TW'
p230
aS'https://www.appannie.com/apps/google-play/app/animal.emotion.stickers/keywords/#countries=TW'
p231
aS'https://www.appannie.com/apps/google-play/app/com.imvu.mobilecordova/keywords/#countries=TW'
p232
aS'https://www.appannie.com/apps/google-play/app/com.ogan.status2017/keywords/#countries=TW'
p233
aS'https://www.appannie.com/apps/google-play/app/tv.hiclub.live/keywords/#countries=TW'
p234
aS'https://www.appannie.com/apps/google-play/app/com.tingyisou.ceversionf/keywords/#countries=TW'
p235
aS'https://www.appannie.com/apps/google-play/app/com.mejorapps.fastboostpro/keywords/#countries=TW'
p236
aS'https://www.appannie.com/apps/google-play/app/com.meetme.android.activities/keywords/#countries=TW'
p237
aS'https://www.appannie.com/apps/google-play/app/com.webcam.live.stranger/keywords/#countries=TW'
p238
aS'https://www.appannie.com/apps/google-play/app/com.buddy.tiki/keywords/#countries=TW'
p239
aS'https://www.appannie.com/apps/google-play/app/socials.networkss.com/keywords/#countries=TW'
p240
aS'https://www.appannie.com/apps/google-play/app/io.lulala.apps.dating/keywords/#countries=TW'
p241
aS'https://www.appannie.com/apps/google-play/app/net.lovoo.android/keywords/#countries=TW'
p242
aS'https://www.appannie.com/apps/google-play/app/com.smtown.vyrl/keywords/#countries=TW'
p243
aS'https://www.appannie.com/apps/google-play/app/yapp.likerapp/keywords/#countries=TW'
p244
aS'https://www.appannie.com/apps/google-play/app/com.utalk.kushow/keywords/#countries=TW'
p245
aS'https://www.appannie.com/apps/google-play/app/com.vkontakte.android/keywords/#countries=TW'
p246
aS'https://www.appannie.com/apps/google-play/app/com.wealoha.social/keywords/#countries=TW'
p247
aS'https://www.appannie.com/apps/google-play/app/net.prtm.myfamily/keywords/#countries=TW'
p248
aS'https://www.appannie.com/apps/google-play/app/com.geekoors.kaobei/keywords/#countries=TW'
p249
aS'https://www.appannie.com/apps/google-play/app/com.followers.getsocialfans/keywords/#countries=TW'
p250
aS'https://www.appannie.com/apps/google-play/app/com.adzen.app.mgf/keywords/#countries=TW'
p251
aS'https://www.appannie.com/apps/google-play/app/com.AngleApp.BirthdayGreetingCards/keywords/#countries=TW'
p252
aS'https://www.appannie.com/apps/google-play/app/com.HachigoKenjo.GMNportugese/keywords/#countries=TW'
p253
aS'https://www.appannie.com/apps/google-play/app/chat.chatingtostrangers/keywords/#countries=TW'
p254
aS'https://www.appannie.com/apps/google-play/app/com.imyoumo.android/keywords/#countries=TW'
p255
aS'https://www.appannie.com/apps/google-play/app/com.illuminate.texaspoker/keywords/#countries=TW'
p256
aS'https://www.appannie.com/apps/google-play/app/com.sayurilittlelilly88.GmnFlowerChinese/keywords/#countries=TW'
p257
aS'https://www.appannie.com/apps/google-play/app/com.themediadudes.whodeletedme.app/keywords/#countries=TW'
p258
aS'https://www.appannie.com/apps/google-play/app/com.tfreetalk.android.apps.epenpal/keywords/#countries=TW'
p259
aS'https://www.appannie.com/apps/google-play/app/free.emoticons.mushroomprincess.tw/keywords/#countries=TW'
p260
aS'https://www.appannie.com/apps/google-play/app/jp.ameba/keywords/#countries=TW'
p261
aS'https://www.appannie.com/apps/google-play/app/com.textmeinc.textme/keywords/#countries=TW'
p262
aS'https://www.appannie.com/apps/google-play/app/com.aimatchmaker.aimm/keywords/#countries=TW'
p263
aS'https://www.appannie.com/apps/google-play/app/com.behance.behance/keywords/#countries=TW'
p264
aS'https://www.appannie.com/apps/google-play/app/org.chang.MyDarling/keywords/#countries=TW'
p265
aS'https://www.appannie.com/apps/google-play/app/com.planoly.android/keywords/#countries=TW'
p266
aS'https://www.appannie.com/apps/google-play/app/com.camel.corp.universalcopy/keywords/#countries=TW'
p267
aS'https://www.appannie.com/apps/google-play/app/free.emoticons.cakecat.tw/keywords/#countries=TW'
p268
aS'https://www.appannie.com/apps/google-play/app/com.dhservices.daddyhunt/keywords/#countries=TW'
p269
aS'https://www.appannie.com/apps/google-play/app/com.path/keywords/#countries=TW'
p270
aS'https://www.appannie.com/apps/google-play/app/com.htc.sense.socialnetwork.facebook/keywords/#countries=TW'
p271
aS'https://www.appannie.com/apps/google-play/app/com.cloudmosa.puffinFB/keywords/#countries=TW'
p272
aS'https://www.appannie.com/apps/google-play/app/air.net.jpomotenashi.android.videochat/keywords/#countries=TW'
p273
aS'https://www.appannie.com/apps/google-play/app/com.com2us.com2ushub.android.key/keywords/#countries=TW'
p274
aS'https://www.appannie.com/apps/google-play/app/com.myfbook.profile.stalkers/keywords/#countries=TW'
p275
aS'https://www.appannie.com/apps/google-play/app/com.jham.goodmorning/keywords/#countries=TW'
p276
aS'https://www.appannie.com/apps/google-play/app/com.shareitagain.bigemoji/keywords/#countries=TW'
p277
aS'https://www.appannie.com/apps/google-play/app/com.dateme.android/keywords/#countries=TW'
p278
aS'https://www.appannie.com/apps/google-play/app/appinventor.ai_mimijjunzzhi.bh3/keywords/#countries=TW'
p279
aS'https://www.appannie.com/apps/google-play/app/com.AngleApp.BirthdayWishesMessages/keywords/#countries=TW'
p280
aS'https://www.appannie.com/apps/google-play/app/com.quora.android/keywords/#countries=TW'
p281
aS'https://www.appannie.com/apps/google-play/app/com.narvii.amino.x219280721/keywords/#countries=TW'
p282
aS'https://www.appannie.com/apps/google-play/app/com.m104plus/keywords/#countries=TW'
p283
aS'https://www.appannie.com/apps/google-play/app/younow.live/keywords/#countries=TW'
p284
aS'https://www.appannie.com/apps/google-play/app/com.btl.whoviewedmyprofile/keywords/#countries=TW'
p285
aS'https://www.appannie.com/apps/google-play/app/com.dcinside.app.gall_produce101s02/keywords/#countries=TW'
p286
aS'https://www.appannie.com/apps/google-play/app/com.triveous.recorder/keywords/#countries=TW'
p287
aS'https://www.appannie.com/apps/google-play/app/com.tencent.now/keywords/#countries=TW'
p288
aS'https://www.appannie.com/apps/google-play/app/jp.cocone.pocketcolony/keywords/#countries=TW'
p289
aS'https://www.appannie.com/apps/google-play/app/com.icue.messenger/keywords/#countries=TW'
p290
aS'https://www.appannie.com/apps/google-play/app/com.llspace.pupu/keywords/#countries=TW'
p291
aS'https://www.appannie.com/apps/google-play/app/com.bringsgame.love/keywords/#countries=TW'
p292
aS'https://www.appannie.com/apps/google-play/app/com.styleshare.android/keywords/#countries=TW'
p293
aS'https://www.appannie.com/apps/google-play/app/cc.mmlove.city/keywords/#countries=TW'
p294
aS'https://www.appannie.com/apps/google-play/app/free.emoticons.chumelephants.tw/keywords/#countries=TW'
p295
aS'https://www.appannie.com/apps/google-play/app/com.jianshu.haruki/keywords/#countries=TW'
p296
aS'https://www.appannie.com/apps/google-play/app/com.HachigoKenjo.ThaiCurry/keywords/#countries=TW'
p297
aS'https://www.appannie.com/apps/google-play/app/com.rmsoft.follower.insight/keywords/#countries=TW'
p298
aS'https://www.appannie.com/apps/google-play/app/me2.zing.vn/keywords/#countries=TW'
p299
aS'https://www.appannie.com/apps/google-play/app/com.jessestapir.gtwf/keywords/#countries=TW'
p300
aS'https://www.appannie.com/apps/google-play/app/free.emoticons.orangeman.tw/keywords/#countries=TW'
p301
aS'https://www.appannie.com/apps/google-play/app/com.gpowers.imagesizer/keywords/#countries=TW'
p302
aS'https://www.appannie.com/apps/google-play/app/com.tencent.WBlog/keywords/#countries=TW'
p303
aS'https://www.appannie.com/apps/google-play/app/com.floaters.b4f/keywords/#countries=TW'
p304
aS'https://www.appannie.com/apps/google-play/app/air.u.live.video.chat/keywords/#countries=TW'
p305
aS'https://www.appannie.com/apps/google-play/app/com.rchat.ltgd.rchat/keywords/#countries=TW'
p306
aS'https://www.appannie.com/apps/google-play/app/com.toluna.webservice/keywords/#countries=TW'
p307
aS'https://www.appannie.com/apps/google-play/app/com.chai/keywords/#countries=TW'
p308
aS'https://www.appannie.com/apps/google-play/app/com.HachigoKenjo.BeautifulPictureHD/keywords/#countries=TW'
p309
aS'https://www.appannie.com/apps/google-play/app/com.AngleApp.HaveGoodDayMorning/keywords/#countries=TW'
p310
aS'https://www.appannie.com/apps/google-play/app/com.phonesplayer.topimages.goodmorning/keywords/#countries=TW'
p311
aS'https://www.appannie.com/apps/google-play/app/com.jham.greetings/keywords/#countries=TW'
p312
aS'https://www.appannie.com/apps/google-play/app/com.mobappcreator.app_63498_66617/keywords/#countries=TW'
p313
aS'https://www.appannie.com/apps/google-play/app/com.profile.admires_stalkers_unknown/keywords/#countries=TW'
p314
aS'https://www.appannie.com/apps/google-play/app/com.flitto.app/keywords/#countries=TW'
p315
aS'https://www.appannie.com/apps/google-play/app/appear.in.app/keywords/#countries=TW'
p316
aS'https://www.appannie.com/apps/google-play/app/com.ogodatingapps.divorceddatingsite/keywords/#countries=TW'
p317
aS'https://www.appannie.com/apps/google-play/app/com.mylikemeter.mobile/keywords/#countries=TW'
p318
aS'https://www.appannie.com/apps/google-play/app/com.leon456.chatwithlala/keywords/#countries=TW'
p319
aS'https://www.appannie.com/apps/google-play/app/com.intimegocareer/keywords/#countries=TW'
p320
aS'https://www.appannie.com/apps/google-play/app/com.hoott/keywords/#countries=TW'
p321
aS'https://www.appannie.com/apps/google-play/app/com.friendmobile.singleparty/keywords/#countries=TW'
p322
aS'https://www.appannie.com/apps/google-play/app/com.clickntap.costaintouch/keywords/#countries=TW'
p323
aS'https://www.appannie.com/apps/google-play/app/com.kakao.story/keywords/#countries=TW'
p324
aS'https://www.appannie.com/apps/google-play/app/com.bum.face.livevideo/keywords/#countries=TW'
p325
aS'https://www.appannie.com/apps/google-play/app/io.friendly/keywords/#countries=TW'
p326
aS'https://www.appannie.com/apps/google-play/app/com.younglive.livestreaming.international/keywords/#countries=TW'
p327
aS'https://www.appannie.com/apps/google-play/app/com.tnine.romanticjustforu/keywords/#countries=TW'
p328
aS'https://www.appannie.com/apps/google-play/app/com.creativetrends.simple.app/keywords/#countries=TW'
p329
aS'https://www.appannie.com/apps/google-play/app/sayatme.guide.tutorial/keywords/#countries=TW'
p330
aS'https://www.appannie.com/apps/google-play/app/net.fast.web.browser/keywords/#countries=TW'
p331
aS'https://www.appannie.com/apps/google-play/app/chat.worldmatchdate/keywords/#countries=TW'
p332
aS'https://www.appannie.com/apps/google-play/app/com.tbcitw.app.friendstracker/keywords/#countries=TW'
p333
aS'https://www.appannie.com/apps/google-play/app/com.asiandate/keywords/#countries=TW'
p334
aS'https://www.appannie.com/apps/google-play/app/com.dd.faceage/keywords/#countries=TW'
p335
aS'https://www.appannie.com/apps/google-play/app/pink.heart.love.dreams/keywords/#countries=TW'
p336
aS'https://www.appannie.com/apps/google-play/app/free.emoticons.keroyan.tw/keywords/#countries=TW'
p337
aS'https://www.appannie.com/apps/google-play/app/blyther.c4chat/keywords/#countries=TW'
p338
aS'https://www.appannie.com/apps/google-play/app/com.cootek.smartinputv5.skin.keyboard_theme_song_of_death/keywords/#countries=TW'
p339
aS'https://www.appannie.com/apps/google-play/app/com.vk.stream/keywords/#countries=TW'
p340
aS'https://www.appannie.com/apps/google-play/app/com.uxin.live/keywords/#countries=TW'
p341
aS'https://www.appannie.com/apps/google-play/app/com.ksytech.weishangshenqi/keywords/#countries=TW'
p342
aS'https://www.appannie.com/apps/google-play/app/com.fotoable.hello.chat/keywords/#countries=TW'
p343
aS'https://www.appannie.com/apps/google-play/app/com.yuandroid.touchPTT/keywords/#countries=TW'
p344
aS'https://www.appannie.com/apps/google-play/app/com.NBestApp.NGoodMorningEn11/keywords/#countries=TW'
p345
aS'https://www.appannie.com/apps/google-play/app/com.taiwanmobile.volunteers/keywords/#countries=TW'
p346
aS'https://www.appannie.com/apps/google-play/app/com.locator24.gpstracker/keywords/#countries=TW'
p347
aS'https://www.appannie.com/apps/google-play/app/com.jham.goodnight2014/keywords/#countries=TW'
p348
aS'https://www.appannie.com/apps/google-play/app/com.gpstracker.track/keywords/#countries=TW'
p349
aS'https://www.appannie.com/apps/google-play/app/american.chatmeetfriends/keywords/#countries=TW'
p350
aS'https://www.appannie.com/apps/google-play/app/socials.com.application/keywords/#countries=TW'
p351
aS'https://www.appannie.com/apps/google-play/app/com.red.wotalk/keywords/#countries=TW'
p352
aS'https://www.appannie.com/apps/google-play/app/com.rain.liteforfacebook2017/keywords/#countries=TW'
p353
aS'https://www.appannie.com/apps/google-play/app/lovequotes007.love.justforu.goodmorning/keywords/#countries=TW'
p354
aS'https://www.appannie.com/apps/google-play/app/com.justdo.instafollow/keywords/#countries=TW'
p355
aS'https://www.appannie.com/apps/google-play/app/com.mame.dianwanyouxi009/keywords/#countries=TW'
p356
aS'https://www.appannie.com/apps/google-play/app/com.JacobApp.GoodMorningGoodDay/keywords/#countries=TW'
p357
aS'https://www.appannie.com/apps/google-play/app/ninja.crush.android/keywords/#countries=TW'
p358
aS'https://www.appannie.com/apps/google-play/app/th.media.itsme/keywords/#countries=TW'
p359
aS'https://www.appannie.com/apps/google-play/app/free.emoticons.pudding.tw/keywords/#countries=TW'
p360
aS'https://www.appannie.com/apps/google-play/app/com.d8aspring.surveyon/keywords/#countries=TW'
p361
aS'https://www.appannie.com/apps/google-play/app/jp.co.fusioncom.smartalk.android/keywords/#countries=TW'
p362
aS'https://www.appannie.com/apps/google-play/app/pink.love.girl.bubbles/keywords/#countries=TW'
p363
aS'https://www.appannie.com/apps/google-play/app/com.nice.tutulive/keywords/#countries=TW'
p364
aS'https://www.appannie.com/apps/google-play/app/com.terriblystudio.machineliker/keywords/#countries=TW'
p365
aS'https://www.appannie.com/apps/google-play/app/com.dolphin.browser.zero/keywords/#countries=TW'
p366
aS'https://www.appannie.com/apps/google-play/app/air.Chat.org/keywords/#countries=TW'
p367
aS'https://www.appannie.com/apps/google-play/app/com.profile.visitors_stalkers/keywords/#countries=TW'
p368
aS'https://www.appannie.com/apps/google-play/app/org.tchat/keywords/#countries=TW'
p369
aS'https://www.appannie.com/apps/google-play/app/com.IdeaDesign.HappyBirthdayToYou/keywords/#countries=TW'
p370
aS'https://www.appannie.com/apps/google-play/app/vir56k.loversicon.core/keywords/#countries=TW'
p371
aS'https://www.appannie.com/apps/google-play/app/com.c1111.zone.servicestore/keywords/#countries=TW'
p372
aS'https://www.appannie.com/apps/google-play/app/com.quoord.tapatalkpro.activity/keywords/#countries=TW'
p373
aS'https://www.appannie.com/apps/google-play/app/com.HachigoKenjo.GoodNightLovingTrail/keywords/#countries=TW'
p374
aS'https://www.appannie.com/apps/google-play/app/com.peter.animatedlovestickers/keywords/#countries=TW'
p375
aS'https://www.appannie.com/apps/google-play/app/hfast.facebook.lite/keywords/#countries=TW'
p376
aS'https://www.appannie.com/apps/google-play/app/com.ifreetalk.ftalk/keywords/#countries=TW'
p377
aS'https://www.appannie.com/apps/google-play/app/com.dating.android/keywords/#countries=TW'
p378
aS'https://www.appannie.com/apps/google-play/app/com.dk.omega.chat/keywords/#countries=TW'
p379
aS'https://www.appannie.com/apps/google-play/app/com.emojifamily.emoji.keyboard.sticker.MiddleFingerGif/keywords/#countries=TW'
p380
aS'https://www.appannie.com/apps/google-play/app/com.KTConnect.goodnight/keywords/#countries=TW'
p381
aS'https://www.appannie.com/apps/google-play/app/free.emoticons.dokuro.tw/keywords/#countries=TW'
p382
aS'https://www.appannie.com/apps/google-play/app/com.ezmobo.audiolove/keywords/#countries=TW'
p383
aS'https://www.appannie.com/apps/google-play/app/com.wInternet_3985304/keywords/#countries=TW'
p384
aS'https://www.appannie.com/apps/google-play/app/com.kwai.mercury/keywords/#countries=TW'
p385
aS'https://www.appannie.com/apps/google-play/app/com.aiyouzhe.tieba/keywords/#countries=TW'
p386
aS'https://www.appannie.com/apps/google-play/app/com.anaface.anaface/keywords/#countries=TW'
p387
aS'https://www.appannie.com/apps/google-play/app/com.arabchat.girls.numbers/keywords/#countries=TW'
p388
aS'https://www.appannie.com/apps/google-play/app/br.com.deway.wfapp/keywords/#countries=TW'
p389
aS'https://www.appannie.com/apps/google-play/app/com.glympse.android.glympse/keywords/#countries=TW'
p390
aS'https://www.appannie.com/apps/google-play/app/com.mi.vtalk/keywords/#countries=TW'
p391
aS'https://www.appannie.com/apps/google-play/app/com.emojiplugin.coloremoji.googleemoji/keywords/#countries=TW'
p392
aS'https://www.appannie.com/apps/google-play/app/com.repost/keywords/#countries=TW'
p393
aS'https://www.appannie.com/apps/google-play/app/com.giamma.like_counter/keywords/#countries=TW'
p394
aS'https://www.appannie.com/apps/google-play/app/com.phm.joy/keywords/#countries=TW'
p395
aS'https://www.appannie.com/apps/google-play/app/mobi.mgeek.browserfaster/keywords/#countries=TW'
p396
aS'https://www.appannie.com/apps/google-play/app/com.nm.emoji.emojikeyboard/keywords/#countries=TW'
p397
aS'https://www.appannie.com/apps/google-play/app/com.novionline.subscribercounter/keywords/#countries=TW'
p398
aS'https://www.appannie.com/apps/google-play/app/com.febria.puasaramadhan/keywords/#countries=TW'
p399
aS'https://www.appannie.com/apps/google-play/app/com.panelManagement.activity/keywords/#countries=TW'
p400
aS'https://www.appannie.com/apps/google-play/app/com.sidefeed.TCLive/keywords/#countries=TW'
p401
aS'https://www.appannie.com/apps/google-play/app/com.linecorp.lineblog/keywords/#countries=TW'
p402
aS'https://www.appannie.com/apps/google-play/app/com.peter.stickers/keywords/#countries=TW'
p403
aS'https://www.appannie.com/apps/google-play/app/com.kakao.group/keywords/#countries=TW'
p404
aS'https://www.appannie.com/apps/google-play/app/com.renren.xiaonei.android/keywords/#countries=TW'
p405
aS'https://www.appannie.com/apps/google-play/app/free.emoticons.cute/keywords/#countries=TW'
p406
aS'https://www.appannie.com/apps/google-play/app/com.plus.fb/keywords/#countries=TW'
p407
aS'https://www.appannie.com/apps/google-play/app/chat.ola.vn/keywords/#countries=TW'
p408
aS'https://www.appannie.com/apps/google-play/app/com.zhiliaoapp.lively/keywords/#countries=TW'
p409
aS'https://www.appannie.com/apps/google-play/app/com.talkmate.tmr/keywords/#countries=TW'
p410
aS'https://www.appannie.com/apps/google-play/app/com.selvaraj.twoway.android/keywords/#countries=TW'
p411
aS'https://www.appannie.com/apps/google-play/app/com.ijfoto.tw.origin/keywords/#countries=TW'
p412
aS'https://www.appannie.com/apps/google-play/app/com.dhj.allstatus/keywords/#countries=TW'
p413
aS'https://www.appannie.com/apps/google-play/app/free.emoticons.oyajidog.tw/keywords/#countries=TW'
p414
aS'https://www.appannie.com/apps/google-play/app/com.art.infoapps.birthday/keywords/#countries=TW'
p415
aS'https://www.appannie.com/apps/google-play/app/com.HachigoKenjo.GmnLatin/keywords/#countries=TW'
p416
aS'https://www.appannie.com/apps/google-play/app/com.KTConnect.goodmorningen/keywords/#countries=TW'
p417
aS'https://www.appannie.com/apps/google-play/app/com.bbbler.social.meetcute/keywords/#countries=TW'
p418
aS'https://www.appannie.com/apps/google-play/app/com.justforthee.ichurch/keywords/#countries=TW'
p419
aS'https://www.appannie.com/apps/google-play/app/pro.appus.likulatorfb/keywords/#countries=TW'
p420
aS'https://www.appannie.com/apps/google-play/app/com.ionicframework.myapp883697/keywords/#countries=TW'
p421
aS'https://www.appannie.com/apps/google-play/app/chat.matchdate/keywords/#countries=TW'
p422
aS'https://www.appannie.com/apps/google-play/app/art.cute.imagine.flowers/keywords/#countries=TW'
p423
aS'https://www.appannie.com/apps/google-play/app/com.zeeshan.greetingcards/keywords/#countries=TW'
p424
aS'https://www.appannie.com/apps/google-play/app/com.ml.discju/keywords/#countries=TW'
p425
aS'https://www.appannie.com/apps/google-play/app/com.miinosoft.unfriend/keywords/#countries=TW'
p426
aS'https://www.appannie.com/apps/google-play/app/com.liquable.nemo/keywords/#countries=TW'
p427
aS'https://www.appannie.com/apps/google-play/app/com.narvii.amino.x89/keywords/#countries=TW'
p428
aS'https://www.appannie.com/apps/google-play/app/cartoon.cute.pink.funny/keywords/#countries=TW'
p429
aS'https://www.appannie.com/apps/google-play/app/com.app.university/keywords/#countries=TW'
p430
aS'https://www.appannie.com/apps/google-play/app/com.livebigg.almarapp9013sa/keywords/#countries=TW'
p431
aS'https://www.appannie.com/apps/google-play/app/com.skyforce.liteappforfacebook/keywords/#countries=TW'
p432
aS'https://www.appannie.com/apps/google-play/app/com.fm.android/keywords/#countries=TW'
p433
aS'https://www.appannie.com/apps/google-play/app/free.emoticons.hatdog.tw/keywords/#countries=TW'
p434
aS'https://www.appannie.com/apps/google-play/app/com.ismiya.isptt/keywords/#countries=TW'
p435
aS'https://www.appannie.com/apps/google-play/app/net.activetheory.paperplanes/keywords/#countries=TW'
p436
aS'https://www.appannie.com/apps/google-play/app/com.mcot.a/keywords/#countries=TW'
p437
aS'https://www.appannie.com/apps/google-play/app/sourcecor.com.temple01/keywords/#countries=TW'
p438
aS'https://www.appannie.com/apps/google-play/app/com.tenthbit.juliet/keywords/#countries=TW'
p439
aS'https://www.appannie.com/apps/google-play/app/net.couplemaker.meeting/keywords/#countries=TW'
p440
aS'https://www.appannie.com/apps/google-play/app/ru.trinitydigital.findface/keywords/#countries=TW'
p441
aS'https://www.appannie.com/apps/google-play/app/meetchat.tw/keywords/#countries=TW'
p442
aS'https://www.appannie.com/apps/google-play/app/com.kakafun.hk2hand/keywords/#countries=TW'
p443
aS'https://www.appannie.com/apps/google-play/app/com.Android.TarNumber/keywords/#countries=TW'
p444
aS'https://www.appannie.com/apps/google-play/app/com.videocam.chatroom.live.amfrog.android/keywords/#countries=TW'
p445
aS'https://www.appannie.com/apps/google-play/app/com.fuzixx.dokidokipostbox/keywords/#countries=TW'
p446
aS'https://www.appannie.com/apps/google-play/app/dli.app.wowbwow/keywords/#countries=TW'
p447
aS'https://www.appannie.com/apps/google-play/app/com.infostream.seekingarrangement/keywords/#countries=TW'
p448
aS'https://www.appannie.com/apps/google-play/app/com.lovechatbig/keywords/#countries=TW'
p449
aS'https://www.appannie.com/apps/google-play/app/com.moment.leagueoffisher/keywords/#countries=TW'
p450
aS'https://www.appannie.com/apps/google-play/app/com.hunter123321000.exchange/keywords/#countries=TW'
p451
aS'https://www.appannie.com/apps/google-play/app/com.adam4adam.radar2.ui/keywords/#countries=TW'
p452
aS'https://www.appannie.com/apps/google-play/app/com.hootsuite.droid.full/keywords/#countries=TW'
p453
aS'https://www.appannie.com/apps/google-play/app/jp.pxv.pawoo/keywords/#countries=TW'
p454
aS'https://www.appannie.com/apps/google-play/app/com.nana.updatestatuskeren/keywords/#countries=TW'
p455
aS'https://www.appannie.com/apps/google-play/app/com.ahmed.profileviewers/keywords/#countries=TW'
p456
aS'https://www.appannie.com/apps/google-play/app/com.anykey.ulala/keywords/#countries=TW'
p457
aS'https://www.appannie.com/apps/google-play/app/com.happinessJia.communityservice.gphone/keywords/#countries=TW'
p458
aS'https://www.appannie.com/apps/google-play/app/com.eico.weico/keywords/#countries=TW'
p459
aS'https://www.appannie.com/apps/google-play/app/com.tencent.qgame/keywords/#countries=TW'
p460
aS'https://www.appannie.com/apps/google-play/app/net.letscorp.girlfriendcalculator/keywords/#countries=TW'
p461
aS'https://www.appannie.com/apps/google-play/app/com.decoders.love.emoji/keywords/#countries=TW'
p462
aS'https://www.appannie.com/apps/google-play/app/com.lihkg.app/keywords/#countries=TW'
p463
aS'https://www.appannie.com/apps/google-play/app/com.waf.lovemessageforbf/keywords/#countries=TW'
p464
aS'https://www.appannie.com/apps/google-play/app/com.HachigoKenjo.AnimalPhotoGallery/keywords/#countries=TW'
p465
aS'https://www.appannie.com/apps/google-play/app/com.indeed.golinks/keywords/#countries=TW'
p466
aS'https://www.appannie.com/apps/google-play/app/com.jaineed.istickers/keywords/#countries=TW'
p467
aS'https://www.appannie.com/apps/google-play/app/global.chatdatingchat/keywords/#countries=TW'
p468
aS'https://www.appannie.com/apps/google-play/app/com.phhhoto.android/keywords/#countries=TW'
p469
aS'https://www.appannie.com/apps/google-play/app/chat.appfactory360.com.lovechat/keywords/#countries=TW'
p470
aS'https://www.appannie.com/apps/google-play/app/sg.bigo.hello/keywords/#countries=TW'
p471
aS'https://www.appannie.com/apps/google-play/app/com.socialelite.app/keywords/#countries=TW'
p472
aS'https://www.appannie.com/apps/google-play/app/com.mobilplug.mylove/keywords/#countries=TW'
p473
aS'https://www.appannie.com/apps/google-play/app/com.kimcy929.hashtags/keywords/#countries=TW'
p474
aS'https://www.appannie.com/apps/google-play/app/com.smileysapp.sharing/keywords/#countries=TW'
p475
aS'https://www.appannie.com/apps/google-play/app/com.HachigoKenjo.MissYouSoMuch_Hindi/keywords/#countries=TW'
p476
aS'https://www.appannie.com/apps/google-play/app/com.xiaprojects.she.friendslooklikeme/keywords/#countries=TW'
p477
aS'https://www.appannie.com/apps/google-play/app/com.sayurilittlelilly88.GNFlowerChinese/keywords/#countries=TW'
p478
aS'https://www.appannie.com/apps/google-play/app/com.bringsgame.stickers.animatedemoticons/keywords/#countries=TW'
p479
aS'https://www.appannie.com/apps/google-play/app/io.maper.android/keywords/#countries=TW'
p480
aS'https://www.appannie.com/apps/google-play/app/jp.co.airfront.android.a2chMate/keywords/#countries=TW'
p481
aS'https://www.appannie.com/apps/google-play/app/com.narvii.amino.x54/keywords/#countries=TW'
p482
aS'https://www.appannie.com/apps/google-play/app/com.civamapps.facelooklite/keywords/#countries=TW'
p483
aS'https://www.appannie.com/apps/google-play/app/com.emojikeyboard.cute.galaxyemoji/keywords/#countries=TW'
p484
aS'https://www.appannie.com/apps/google-play/app/com.stager.stager/keywords/#countries=TW'
p485
aS'https://www.appannie.com/apps/google-play/app/com.bsb.hike/keywords/#countries=TW'
p486
aS'https://www.appannie.com/apps/google-play/app/com.weekr.me/keywords/#countries=TW'
p487
aS'https://www.appannie.com/apps/google-play/app/com.akasanet.yogrt.android/keywords/#countries=TW'
p488
aS'https://www.appannie.com/apps/google-play/app/fyi.infonesia.mobile.android/keywords/#countries=TW'
p489
aS'https://www.appannie.com/apps/google-play/app/com.vng.live360/keywords/#countries=TW'
p490
aS'https://www.appannie.com/apps/google-play/app/com.instagram.android/keywords/#countries=TW'
p491
aS'https://www.appannie.com/apps/google-play/app/com.facebook.katana/keywords/#countries=TW'
p492
aS'https://www.appannie.com/apps/google-play/app/com.asiainno.uplive.taiwan/keywords/#countries=TW'
p493
aS'https://www.appannie.com/apps/google-play/app/com.machipopo.media17/keywords/#countries=TW'
p494
aS'https://www.appannie.com/apps/google-play/app/com.facebook.lite/keywords/#countries=TW'
p495
aS'https://www.appannie.com/apps/google-play/app/com.asiainno.uplive/keywords/#countries=TW'
p496
aS'https://www.appannie.com/apps/google-play/app/com.lang.lang/keywords/#countries=TW'
p497
aS'https://www.appannie.com/apps/google-play/app/kr.co.vcnc.android.couple/keywords/#countries=TW'
p498
aS'https://www.appannie.com/apps/google-play/app/com.tiange.mlivezm/keywords/#countries=TW'
p499
aS'https://www.appannie.com/apps/google-play/app/chat.meme.inke/keywords/#countries=TW'
p500
aS'https://www.appannie.com/apps/google-play/app/com.beetalk/keywords/#countries=TW'
p501
aS'https://www.appannie.com/apps/google-play/app/com.frienzyme.a/keywords/#countries=TW'
p502
aS'https://www.appannie.com/apps/google-play/app/today.wootalk.mobile/keywords/#countries=TW'
p503
aS'https://www.appannie.com/apps/google-play/app/tw.jasoncheng.holi/keywords/#countries=TW'
p504
aS'https://www.appannie.com/apps/google-play/app/com.sina.weibo/keywords/#countries=TW'
p505
aS'https://www.appannie.com/apps/google-play/app/com.one.goodnight/keywords/#countries=TW'
p506
aS'https://www.appannie.com/apps/google-play/app/com.twodate.app/keywords/#countries=TW'
p507
aS'https://www.appannie.com/apps/google-play/app/com.partido/keywords/#countries=TW'
p508
aS'https://www.appannie.com/apps/google-play/app/com.pinterest/keywords/#countries=TW'
p509
aS'https://www.appannie.com/apps/google-play/app/com.tumblr/keywords/#countries=TW'
p510
aS'https://www.appannie.com/apps/google-play/app/sg.bigo.live/keywords/#countries=TW'
p511
aS'https://www.appannie.com/apps/google-play/app/com.cmcm.live/keywords/#countries=TW'
p512
aS'https://www.appannie.com/apps/google-play/app/im.linking.friends/keywords/#countries=TW'
p513
aS'https://www.appannie.com/apps/google-play/app/com.raidcall/keywords/#countries=TW'
p514
aS'https://www.appannie.com/apps/google-play/app/com.snapchat.android/keywords/#countries=TW'
p515
aS'https://www.appannie.com/apps/google-play/app/tw.chiae.inlive/keywords/#countries=TW'
p516
aS'https://www.appannie.com/apps/google-play/app/com.skout.android/keywords/#countries=TW'
p517
aS'https://www.appannie.com/apps/google-play/app/com.mobile01.android.forum/keywords/#countries=TW'
p518
aS'https://www.appannie.com/apps/google-play/app/jp.naver.lineplay.android/keywords/#countries=TW'
p519
aS'https://www.appannie.com/apps/google-play/app/com.google.android.apps.plus/keywords/#countries=TW'
p520
aS'https://www.appannie.com/apps/google-play/app/com.myyearbook.m/keywords/#countries=TW'
p521
aS'https://www.appannie.com/apps/google-play/app/com.skyfireapps.followersinsightapp/keywords/#countries=TW'
p522
aS'https://www.appannie.com/apps/google-play/app/com.newfun.noresponse/keywords/#countries=TW'
p523
aS'https://www.appannie.com/apps/google-play/app/com.unearby.sayhi/keywords/#countries=TW'
p524
aS'https://www.appannie.com/apps/google-play/app/com.holiestep.msgpeepingtom/keywords/#countries=TW'
p525
aS'https://www.appannie.com/apps/google-play/app/whitebird.ptt_now/keywords/#countries=TW'
p526
aS'https://www.appannie.com/apps/google-play/app/com.weico.international/keywords/#countries=TW'
p527
aS'https://www.appannie.com/apps/google-play/app/com.loudtalks/keywords/#countries=TW'
p528
aS'https://www.appannie.com/apps/google-play/app/com.zhiliaoapp.musically/keywords/#countries=TW'
p529
aS'https://www.appannie.com/apps/google-play/app/com.nhn.android.band/keywords/#countries=TW'
p530
aS'https://www.appannie.com/apps/google-play/app/com.exutech.chacha/keywords/#countries=TW'
p531
aS'https://www.appannie.com/apps/google-play/app/com.zzzjxc.saymeetnew/keywords/#countries=TW'
p532
aS'https://www.appannie.com/apps/google-play/app/sk.forbis.messenger/keywords/#countries=TW'
p533
aS'https://www.appannie.com/apps/google-play/app/com.ihad.ptt/keywords/#countries=TW'
p534
aS'https://www.appannie.com/apps/google-play/app/com.badoo.mobile/keywords/#countries=TW'
p535
aS'https://www.appannie.com/apps/google-play/app/fast.explorer.web.browser/keywords/#countries=TW'
p536
aS'https://www.appannie.com/apps/google-play/app/com.facebook.groups/keywords/#countries=TW'
p537
aS'https://www.appannie.com/apps/google-play/app/com.sgiggle.production/keywords/#countries=TW'
p538
aS'https://www.appannie.com/apps/google-play/app/com.HachigoKenjo.GmnTelugu/keywords/#countries=TW'
p539
aS'https://www.appannie.com/apps/google-play/app/com.sunfun.wetouch/keywords/#countries=TW'
p540
aS'https://www.appannie.com/apps/google-play/app/com.jookershop.italk/keywords/#countries=TW'
p541
aS'https://www.appannie.com/apps/google-play/app/com.jiecode.ptt/keywords/#countries=TW'
p542
aS'https://www.appannie.com/apps/google-play/app/com.media17.lit/keywords/#countries=TW'
p543
aS'https://www.appannie.com/apps/google-play/app/com.jshon.zhaolaowai/keywords/#countries=TW'
p544
aS'https://www.appannie.com/apps/google-play/app/com.tappple.followersplus/keywords/#countries=TW'
p545
aS'https://www.appannie.com/apps/google-play/app/huboo.android/keywords/#countries=TW'
p546
aS'https://www.appannie.com/apps/google-play/app/com.linkedin.android/keywords/#countries=TW'
p547
aS'https://www.appannie.com/apps/google-play/app/com.joshua.jptt/keywords/#countries=TW'
p548
aS'https://www.appannie.com/apps/google-play/app/net.iaround/keywords/#countries=TW'
p549
aS'https://www.appannie.com/apps/google-play/app/com.jshon.perdateenhance/keywords/#countries=TW'
p550
aS'https://www.appannie.com/apps/google-play/app/com.mico/keywords/#countries=TW'
p551
aS'https://www.appannie.com/apps/google-play/app/com.machipopo.swag/keywords/#countries=TW'
p552
aS'https://www.appannie.com/apps/google-play/app/com.parallel.space.lite/keywords/#countries=TW'
p553
aS'https://www.appannie.com/apps/google-play/app/jp.pxv.android/keywords/#countries=TW'
p554
aS'https://www.appannie.com/apps/google-play/app/secure.explorer.web.browser/keywords/#countries=TW'
p555
aS'https://www.appannie.com/apps/google-play/app/com.fsp.android.friendlocator/keywords/#countries=TW'
p556
aS'https://www.appannie.com/apps/google-play/app/easydating.com.eddate/keywords/#countries=TW'
p557
aS'https://www.appannie.com/apps/google-play/app/com.lavendrapp.lavendr/keywords/#countries=TW'
p558
aS'https://www.appannie.com/apps/google-play/app/com.bubboe.ryze/keywords/#countries=TW'
p559
aS'https://www.appannie.com/apps/google-play/app/com.asiainno.uplive.yiqi/keywords/#countries=TW'
p560
aS'https://www.appannie.com/apps/google-play/app/com.facebook.Mentions/keywords/#countries=TW'
p561
aS'https://www.appannie.com/apps/google-play/app/com.igg.android.wegamers/keywords/#countries=TW'
p562
aS'https://www.appannie.com/apps/google-play/app/chat.divorcedatingandmatch/keywords/#countries=TW'
p563
aS'https://www.appannie.com/apps/google-play/app/com.hornet.android/keywords/#countries=TW'
p564
aS'https://www.appannie.com/apps/google-play/app/tv.periscope.android/keywords/#countries=TW'
p565
aS'https://www.appannie.com/apps/google-play/app/com.kakafun.tw2hand/keywords/#countries=TW'
p566
aS'https://www.appannie.com/apps/google-play/app/club.futurenet.futurenetclub/keywords/#countries=TW'
p567
aS'https://www.appannie.com/apps/google-play/app/com.dating.party/keywords/#countries=TW'
p568
aS'https://www.appannie.com/apps/google-play/app/com.redwolfama.peonylespark.gp/keywords/#countries=TW'
p569
aS'https://www.appannie.com/apps/google-play/app/cn.orangelab.werewolf/keywords/#countries=TW'
p570
aS'https://www.appannie.com/apps/google-play/app/com.jaumo/keywords/#countries=TW'
p571
aS'https://www.appannie.com/apps/google-play/app/app.honestly/keywords/#countries=TW'
p572
aS'https://www.appannie.com/apps/google-play/app/net.pixnet.android.panel/keywords/#countries=TW'
p573
aS'https://www.appannie.com/apps/google-play/app/com.lofter.android/keywords/#countries=TW'
p574
aS'https://www.appannie.com/apps/google-play/app/com.fsp.android.c/keywords/#countries=TW'
p575
aS'https://www.appannie.com/apps/google-play/app/com.sntown.messengerpal/keywords/#countries=TW'
p576
aS'https://www.appannie.com/apps/google-play/app/com.askfm/keywords/#countries=TW'
p577
aS'https://www.appannie.com/apps/google-play/app/tv.shou.android/keywords/#countries=TW'
p578
aS'https://www.appannie.com/apps/google-play/app/com.immomo.momo/keywords/#countries=TW'
p579
aS'https://www.appannie.com/apps/google-play/app/com.wanttalk/keywords/#countries=TW'
p580
aS'https://www.appannie.com/apps/google-play/app/com.plurk.android/keywords/#countries=TW'
p581
aS'https://www.appannie.com/apps/google-play/app/com.hi5.app/keywords/#countries=TW'
p582
aS'https://www.appannie.com/apps/google-play/app/com.altrthink.hitmeup/keywords/#countries=TW'
p583
aS'https://www.appannie.com/apps/google-play/app/com.douban.frodo/keywords/#countries=TW'
p584
aS'https://www.appannie.com/apps/google-play/app/com.jaumo.lesbian/keywords/#countries=TW'
p585
aS'https://www.appannie.com/apps/google-play/app/com.grindrapp.android/keywords/#countries=TW'
p586
aS'https://www.appannie.com/apps/google-play/app/com.explore.web.browser/keywords/#countries=TW'
p587
aS'https://www.appannie.com/apps/google-play/app/com.jieapp.notificationmessager/keywords/#countries=TW'
p588
aS'https://www.appannie.com/apps/google-play/app/mobi.jackd.android/keywords/#countries=TW'
p589
aS'https://www.appannie.com/apps/google-play/app/com.frenclub.fcsocial/keywords/#countries=TW'
p590
aS'https://www.appannie.com/apps/google-play/app/com.monee.zhufuyu/keywords/#countries=TW'
p591
aS'https://www.appannie.com/apps/google-play/app/com.waplog.social/keywords/#countries=TW'
p592
aS'https://www.appannie.com/apps/google-play/app/com.another.eyny/keywords/#countries=TW'
p593
aS'https://www.appannie.com/apps/google-play/app/com.jaumo.gay/keywords/#countries=TW'
p594
aS'https://www.appannie.com/apps/google-play/app/com.tencent.mtt/keywords/#countries=TW'
p595
aS'https://www.appannie.com/apps/google-play/app/com.jookershop.crazyfriend/keywords/#countries=TW'
p596
aS'https://www.appannie.com/apps/google-play/app/com.taptrip/keywords/#countries=TW'
p597
aS'https://www.appannie.com/apps/google-play/app/free.emoticons.tiger.tw/keywords/#countries=TW'
p598
aS'https://www.appannie.com/apps/google-play/app/com.myApp.App.WoWoTalk/keywords/#countries=TW'
p599
aS'https://www.appannie.com/apps/google-play/app/com.mlhg.pttreader/keywords/#countries=TW'
p600
aS'https://www.appannie.com/apps/google-play/app/ru.kidcontrol.gpstracker/keywords/#countries=TW'
p601
aS'https://www.appannie.com/apps/google-play/app/com.stupeflix.legend/keywords/#countries=TW'
p602
aS'https://www.appannie.com/apps/google-play/app/com.p1.mobile.putong/keywords/#countries=TW'
p603
aS'https://www.appannie.com/apps/google-play/app/com.im.ee.android/keywords/#countries=TW'
p604
aS'https://www.appannie.com/apps/google-play/app/com.mj.crl/keywords/#countries=TW'
p605
aS'https://www.appannie.com/apps/google-play/app/com.sntown.snchat/keywords/#countries=TW'
p606
aS'https://www.appannie.com/apps/google-play/app/com.futurebits.instamessage.free/keywords/#countries=TW'
p607
aS'https://www.appannie.com/apps/google-play/app/com.kepchat.androidv3/keywords/#countries=TW'
p608
aS'https://www.appannie.com/apps/google-play/app/com.taggedapp/keywords/#countries=TW'
p609
aS'https://www.appannie.com/apps/google-play/app/com.likesfamousapp/keywords/#countries=TW'
p610
aS'https://www.appannie.com/apps/google-play/app/com.sabagadev.whoviewedmyprofile/keywords/#countries=TW'
p611
aS'https://www.appannie.com/apps/google-play/app/com.HachigoKenjo.BestWishesOnBirthday/keywords/#countries=TW'
p612
aS'https://www.appannie.com/apps/google-play/app/net.connexionone.android.xone/keywords/#countries=TW'
p613
aS'https://www.appannie.com/apps/google-play/app/me.dingtone.app.im/keywords/#countries=TW'
p614
aS'https://www.appannie.com/apps/google-play/app/com.kurtyu.offline/keywords/#countries=TW'
p615
aS'https://www.appannie.com/apps/google-play/app/it.bjarn.android.subscribercount/keywords/#countries=TW'
p616
aS'https://www.appannie.com/apps/google-play/app/com.minus.lovershouse/keywords/#countries=TW'
p617
aS'https://www.appannie.com/apps/google-play/app/free.emoticons.kittycatTW/keywords/#countries=TW'
p618
aS'https://www.appannie.com/apps/google-play/app/com.myApp.App2.OneChat/keywords/#countries=TW'
p619
aS'https://www.appannie.com/apps/google-play/app/com.mmb.mamitalk/keywords/#countries=TW'
p620
aS'https://www.appannie.com/apps/google-play/app/com.stakkfactory.mate/keywords/#countries=TW'
p621
aS'https://www.appannie.com/apps/google-play/app/co.kr.justfriend/keywords/#countries=TW'
p622
aS'https://www.appannie.com/apps/google-play/app/ru.mamba.client/keywords/#countries=TW'
p623
aS'https://www.appannie.com/apps/google-play/app/com.asus.zencircle/keywords/#countries=TW'
p624
aS'https://www.appannie.com/apps/google-play/app/com.zhihu.android/keywords/#countries=TW'
p625
aS'https://www.appannie.com/apps/google-play/app/com.welove520.welove/keywords/#countries=TW'
p626
aS'https://www.appannie.com/apps/google-play/app/com.xuite.myXuite/keywords/#countries=TW'
p627
aS'https://www.appannie.com/apps/google-play/app/com.jookershop.ocircle/keywords/#countries=TW'
p628
aS'https://www.appannie.com/apps/google-play/app/com.tozelabs.tvshowtime/keywords/#countries=TW'
p629
aS'https://www.appannie.com/apps/google-play/app/com.chatous.chatous/keywords/#countries=TW'
p630
aS'https://www.appannie.com/apps/google-play/app/com.pttplus/keywords/#countries=TW'
p631
aS'https://www.appannie.com/apps/google-play/app/com.noyesrun.meeff.kr/keywords/#countries=TW'
p632
aS'https://www.appannie.com/apps/google-play/app/com.google.android.apps.blogger/keywords/#countries=TW'
p633
aS'https://www.appannie.com/apps/google-play/app/net.daum.android.cafe/keywords/#countries=TW'
p634
aS'https://www.appannie.com/apps/google-play/app/com.kayac.nakamap/keywords/#countries=TW'
p635
aS'https://www.appannie.com/apps/google-play/app/com.camshare.camfrog.android/keywords/#countries=TW'
p636
aS'https://www.appannie.com/apps/google-play/app/com.jham.happybirthday/keywords/#countries=TW'
p637
aS'https://www.appannie.com/apps/google-play/app/com.who.viewed.likes.stalks.me.on.my.profile/keywords/#countries=TW'
p638
aS'https://www.appannie.com/apps/google-play/app/com.girlme.live18.video.streaming.show/keywords/#countries=TW'
p639
aS'https://www.appannie.com/apps/google-play/app/com.hellopal.android/keywords/#countries=TW'
p640
aS'https://www.appannie.com/apps/google-play/app/com.yomeet.yomeet/keywords/#countries=TW'
p641
aS'https://www.appannie.com/apps/google-play/app/com.redcactus.repost/keywords/#countries=TW'
p642
aS'https://www.appannie.com/apps/google-play/app/com.livework.livegirl.video.chat/keywords/#countries=TW'
p643
aS'https://www.appannie.com/apps/google-play/app/com.startup168/keywords/#countries=TW'
p644
aS'https://www.appannie.com/apps/google-play/app/com.HachigoKenjo.GMNChinese/keywords/#countries=TW'
p645
aS'https://www.appannie.com/apps/google-play/app/wei.talktalk/keywords/#countries=TW'
p646
aS'https://www.appannie.com/apps/google-play/app/socil.netw.com/keywords/#countries=TW'
p647
aS'https://www.appannie.com/apps/google-play/app/pumpkin.android.truth_or_dare_free_cn/keywords/#countries=TW'
p648
aS'https://www.appannie.com/apps/google-play/app/com.weheartit/keywords/#countries=TW'
p649
aS'https://www.appannie.com/apps/google-play/app/jp.co.applibros.alligatorxx/keywords/#countries=TW'
p650
aS'https://www.appannie.com/apps/google-play/app/com.appspot.scruffapp/keywords/#countries=TW'
p651
aS'https://www.appannie.com/apps/google-play/app/com.whoviewedmy.profile.fbook/keywords/#countries=TW'
p652
aS'https://www.appannie.com/apps/google-play/app/com.wisescott.breezeptt/keywords/#countries=TW'
p653
aS'https://www.appannie.com/apps/google-play/app/com.sgiggle.mango/keywords/#countries=TW'
p654
aS'https://www.appannie.com/apps/google-play/app/com.wali.live/keywords/#countries=TW'
p655
aS'https://www.appannie.com/apps/google-play/app/me.msqrd.android/keywords/#countries=TW'
p656
aS'https://www.appannie.com/apps/google-play/app/net.imusic.android.dokidoki/keywords/#countries=TW'
p657
aS'https://www.appannie.com/apps/google-play/app/tw.com.afreecatv.android/keywords/#countries=TW'
p658
aS'https://www.appannie.com/apps/google-play/app/com.surgeapp.grizzly/keywords/#countries=TW'
p659
aS'https://www.appannie.com/apps/google-play/app/free.emoticons.ribbon/keywords/#countries=TW'
p660
aS'https://www.appannie.com/apps/google-play/app/com.zoosk.zoosk/keywords/#countries=TW'
p661
aS'https://www.appannie.com/apps/google-play/app/com.jookershop.moretalk/keywords/#countries=TW'
p662
aS'https://www.appannie.com/apps/google-play/app/com.wonderabbit.couplete/keywords/#countries=TW'
p663
aS'https://www.appannie.com/apps/google-play/app/com.asiainno.uplive.hongkong/keywords/#countries=TW'
p664
aS'https://www.appannie.com/apps/google-play/app/com.mywickr.wickr2/keywords/#countries=TW'
p665
aS'https://www.appannie.com/apps/google-play/app/com.asus.server.azs/keywords/#countries=TW'
p666
aS'https://www.appannie.com/apps/google-play/app/com.life.messenger/keywords/#countries=TW'
p667
aS'https://www.appannie.com/apps/google-play/app/free.emoticons.whitekitty.tw/keywords/#countries=TW'
p668
aS'https://www.appannie.com/apps/google-play/app/com.HachigoKenjo.masterguruquotes/keywords/#countries=TW'
p669
aS'https://www.appannie.com/apps/google-play/app/free.emoticons.shironeko.tw/keywords/#countries=TW'
p670
aS'https://www.appannie.com/apps/google-play/app/com.narvii.amino.x195570892/keywords/#countries=TW'
p671
aS'https://www.appannie.com/apps/google-play/app/me.soocii.socius/keywords/#countries=TW'
p672
aS'https://www.appannie.com/apps/google-play/app/tv.deshow.videostream/keywords/#countries=TW'
p673
aS'https://www.appannie.com/apps/google-play/app/com.oovoo/keywords/#countries=TW'
p674
aS'https://www.appannie.com/apps/google-play/app/com.lessiastar.groupvideochatlive/keywords/#countries=TW'
p675
aS'https://www.appannie.com/apps/google-play/app/com.girlme.streaming.video.show.live/keywords/#countries=TW'
p676
aS'https://www.appannie.com/apps/google-play/app/com.sayhi.plugin.moxi/keywords/#countries=TW'
p677
aS'https://www.appannie.com/apps/google-play/app/tw.com.goalsoft.liveany/keywords/#countries=TW'
p678
aS'https://www.appannie.com/apps/google-play/app/com.waplogmatch.social/keywords/#countries=TW'
p679
aS'https://www.appannie.com/apps/google-play/app/com.peter.images/keywords/#countries=TW'
p680
aS'https://www.appannie.com/apps/google-play/app/free.emoticons.happypenguin.tw/keywords/#countries=TW'
p681
aS'https://www.appannie.com/apps/google-play/app/com.asus.zentalk/keywords/#countries=TW'
p682
aS'https://www.appannie.com/apps/google-play/app/cn.myhug.fastlove/keywords/#countries=TW'
p683
aS'https://www.appannie.com/apps/google-play/app/ichtech.snapshots/keywords/#countries=TW'
p684
aS'https://www.appannie.com/apps/google-play/app/com.blive.devlosoum65789/keywords/#countries=TW'
p685
aS'https://www.appannie.com/apps/google-play/app/com.shengjuntech.im/keywords/#countries=TW'
p686
aS'https://www.appannie.com/apps/google-play/app/tw.bingfeng.bingfeng/keywords/#countries=TW'
p687
aS'https://www.appannie.com/apps/google-play/app/com.hpyshark.banana/keywords/#countries=TW'
p688
aS'https://www.appannie.com/apps/google-play/app/com.dotanime.animewallfullhd/keywords/#countries=TW'
p689
aS'https://www.appannie.com/apps/google-play/app/com.probits.argo/keywords/#countries=TW'
p690
aS'https://www.appannie.com/apps/google-play/app/com.narvii.amino.x229068291/keywords/#countries=TW'
p691
aS'https://www.appannie.com/apps/google-play/app/com.keyboard.emojiplugin.samemoji/keywords/#countries=TW'
p692
aS'https://www.appannie.com/apps/google-play/app/com.thevoicelover.app/keywords/#countries=TW'
p693
aS'https://www.appannie.com/apps/google-play/app/com.synergetechsolutions.nearbylive/keywords/#countries=TW'
p694
aS'https://www.appannie.com/apps/google-play/app/com.intern.ab.starwish/keywords/#countries=TW'
p695
aS'https://www.appannie.com/apps/google-play/app/com.planetromeo.android.app/keywords/#countries=TW'
p696
aS'https://www.appannie.com/apps/google-play/app/org.wordpress.android/keywords/#countries=TW'
p697
aS'https://www.appannie.com/apps/google-play/app/com.xiaoenai.app/keywords/#countries=TW'
p698
aS'https://www.appannie.com/apps/google-play/app/com.monsgroup.dongnaemon.android/keywords/#countries=TW'
p699
aS'https://www.appannie.com/apps/google-play/app/com.trustmobi.mixin.app/keywords/#countries=TW'
p700
aS'https://www.appannie.com/apps/google-play/app/com.wakie.android/keywords/#countries=TW'
p701
aS'https://www.appannie.com/apps/google-play/app/us.fc2.thebbs/keywords/#countries=TW'
p702
aS'https://www.appannie.com/apps/google-play/app/com.xiaomi.channel/keywords/#countries=TW'
p703
aS'https://www.appannie.com/apps/google-play/app/com.lesdo.sns.playstore/keywords/#countries=TW'
p704
aS'https://www.appannie.com/apps/google-play/app/com.obvyah.ptt/keywords/#countries=TW'
p705
aS'https://www.appannie.com/apps/google-play/app/com.almiracreative.kataucapanselamatpuasa/keywords/#countries=TW'
p706
aS'https://www.appannie.com/apps/google-play/app/com.reizapps.whoviewed.facebook/keywords/#countries=TW'
p707
aS'https://www.appannie.com/apps/google-play/app/com.HachigoKenjo.GmnFrench/keywords/#countries=TW'
p708
aS'https://www.appannie.com/apps/google-play/app/com.zhiliaoapp.musicallylite/keywords/#countries=TW'
p709
aS'https://www.appannie.com/apps/google-play/app/com.kickstarter.kickstarter/keywords/#countries=TW'
p710
aS'https://www.appannie.com/apps/google-play/app/com.meetup/keywords/#countries=TW'
p711
aS'https://www.appannie.com/apps/google-play/app/free.emoticons.blackpug.tw/keywords/#countries=TW'
p712
aS'https://www.appannie.com/apps/google-play/app/com.hans.whowatch/keywords/#countries=TW'
p713
aS'https://www.appannie.com/apps/google-play/app/com.leon456.chatwithgay/keywords/#countries=TW'
p714
aS'https://www.appannie.com/apps/google-play/app/com.instaview.app/keywords/#countries=TW'
p715
aS'https://www.appannie.com/apps/google-play/app/io.agora.vlive/keywords/#countries=TW'
p716
aS'https://www.appannie.com/apps/google-play/app/com.peter.animatedsticker/keywords/#countries=TW'
p717
aS'https://www.appannie.com/apps/google-play/app/com.tencent.livemaster/keywords/#countries=TW'
p718
aS'https://www.appannie.com/apps/google-play/app/me.rooit/keywords/#countries=TW'
p719
aS'https://www.appannie.com/apps/google-play/app/vulcanweblabs.realtimeyoutube/keywords/#countries=TW'
p720
aS'https://www.appannie.com/apps/google-play/app/animal.emotion.stickers/keywords/#countries=TW'
p721
aS'https://www.appannie.com/apps/google-play/app/com.imvu.mobilecordova/keywords/#countries=TW'
p722
aS'https://www.appannie.com/apps/google-play/app/com.ogan.status2017/keywords/#countries=TW'
p723
aS'https://www.appannie.com/apps/google-play/app/tv.hiclub.live/keywords/#countries=TW'
p724
aS'https://www.appannie.com/apps/google-play/app/com.tingyisou.ceversionf/keywords/#countries=TW'
p725
aS'https://www.appannie.com/apps/google-play/app/com.mejorapps.fastboostpro/keywords/#countries=TW'
p726
aS'https://www.appannie.com/apps/google-play/app/com.meetme.android.activities/keywords/#countries=TW'
p727
aS'https://www.appannie.com/apps/google-play/app/com.webcam.live.stranger/keywords/#countries=TW'
p728
aS'https://www.appannie.com/apps/google-play/app/com.buddy.tiki/keywords/#countries=TW'
p729
aS'https://www.appannie.com/apps/google-play/app/socials.networkss.com/keywords/#countries=TW'
p730
aS'https://www.appannie.com/apps/google-play/app/io.lulala.apps.dating/keywords/#countries=TW'
p731
aS'https://www.appannie.com/apps/google-play/app/net.lovoo.android/keywords/#countries=TW'
p732
aS'https://www.appannie.com/apps/google-play/app/com.smtown.vyrl/keywords/#countries=TW'
p733
aS'https://www.appannie.com/apps/google-play/app/yapp.likerapp/keywords/#countries=TW'
p734
aS'https://www.appannie.com/apps/google-play/app/com.utalk.kushow/keywords/#countries=TW'
p735
aS'https://www.appannie.com/apps/google-play/app/com.vkontakte.android/keywords/#countries=TW'
p736
aS'https://www.appannie.com/apps/google-play/app/com.wealoha.social/keywords/#countries=TW'
p737
aS'https://www.appannie.com/apps/google-play/app/net.prtm.myfamily/keywords/#countries=TW'
p738
aS'https://www.appannie.com/apps/google-play/app/com.geekoors.kaobei/keywords/#countries=TW'
p739
aS'https://www.appannie.com/apps/google-play/app/com.followers.getsocialfans/keywords/#countries=TW'
p740
aS'https://www.appannie.com/apps/google-play/app/com.adzen.app.mgf/keywords/#countries=TW'
p741
aS'https://www.appannie.com/apps/google-play/app/com.AngleApp.BirthdayGreetingCards/keywords/#countries=TW'
p742
aS'https://www.appannie.com/apps/google-play/app/com.HachigoKenjo.GMNportugese/keywords/#countries=TW'
p743
aS'https://www.appannie.com/apps/google-play/app/chat.chatingtostrangers/keywords/#countries=TW'
p744
aS'https://www.appannie.com/apps/google-play/app/com.imyoumo.android/keywords/#countries=TW'
p745
aS'https://www.appannie.com/apps/google-play/app/com.illuminate.texaspoker/keywords/#countries=TW'
p746
aS'https://www.appannie.com/apps/google-play/app/com.sayurilittlelilly88.GmnFlowerChinese/keywords/#countries=TW'
p747
aS'https://www.appannie.com/apps/google-play/app/com.themediadudes.whodeletedme.app/keywords/#countries=TW'
p748
aS'https://www.appannie.com/apps/google-play/app/com.tfreetalk.android.apps.epenpal/keywords/#countries=TW'
p749
aS'https://www.appannie.com/apps/google-play/app/free.emoticons.mushroomprincess.tw/keywords/#countries=TW'
p750
aS'https://www.appannie.com/apps/google-play/app/jp.ameba/keywords/#countries=TW'
p751
aS'https://www.appannie.com/apps/google-play/app/com.textmeinc.textme/keywords/#countries=TW'
p752
aS'https://www.appannie.com/apps/google-play/app/com.aimatchmaker.aimm/keywords/#countries=TW'
p753
aS'https://www.appannie.com/apps/google-play/app/com.behance.behance/keywords/#countries=TW'
p754
aS'https://www.appannie.com/apps/google-play/app/org.chang.MyDarling/keywords/#countries=TW'
p755
aS'https://www.appannie.com/apps/google-play/app/com.planoly.android/keywords/#countries=TW'
p756
aS'https://www.appannie.com/apps/google-play/app/com.camel.corp.universalcopy/keywords/#countries=TW'
p757
aS'https://www.appannie.com/apps/google-play/app/free.emoticons.cakecat.tw/keywords/#countries=TW'
p758
aS'https://www.appannie.com/apps/google-play/app/com.dhservices.daddyhunt/keywords/#countries=TW'
p759
aS'https://www.appannie.com/apps/google-play/app/com.path/keywords/#countries=TW'
p760
aS'https://www.appannie.com/apps/google-play/app/com.htc.sense.socialnetwork.facebook/keywords/#countries=TW'
p761
aS'https://www.appannie.com/apps/google-play/app/com.cloudmosa.puffinFB/keywords/#countries=TW'
p762
aS'https://www.appannie.com/apps/google-play/app/air.net.jpomotenashi.android.videochat/keywords/#countries=TW'
p763
aS'https://www.appannie.com/apps/google-play/app/com.com2us.com2ushub.android.key/keywords/#countries=TW'
p764
aS'https://www.appannie.com/apps/google-play/app/com.myfbook.profile.stalkers/keywords/#countries=TW'
p765
aS'https://www.appannie.com/apps/google-play/app/com.jham.goodmorning/keywords/#countries=TW'
p766
aS'https://www.appannie.com/apps/google-play/app/com.shareitagain.bigemoji/keywords/#countries=TW'
p767
aS'https://www.appannie.com/apps/google-play/app/com.dateme.android/keywords/#countries=TW'
p768
aS'https://www.appannie.com/apps/google-play/app/appinventor.ai_mimijjunzzhi.bh3/keywords/#countries=TW'
p769
aS'https://www.appannie.com/apps/google-play/app/com.AngleApp.BirthdayWishesMessages/keywords/#countries=TW'
p770
aS'https://www.appannie.com/apps/google-play/app/com.quora.android/keywords/#countries=TW'
p771
aS'https://www.appannie.com/apps/google-play/app/com.narvii.amino.x219280721/keywords/#countries=TW'
p772
aS'https://www.appannie.com/apps/google-play/app/com.m104plus/keywords/#countries=TW'
p773
aS'https://www.appannie.com/apps/google-play/app/younow.live/keywords/#countries=TW'
p774
aS'https://www.appannie.com/apps/google-play/app/com.btl.whoviewedmyprofile/keywords/#countries=TW'
p775
aS'https://www.appannie.com/apps/google-play/app/com.dcinside.app.gall_produce101s02/keywords/#countries=TW'
p776
aS'https://www.appannie.com/apps/google-play/app/com.triveous.recorder/keywords/#countries=TW'
p777
aS'https://www.appannie.com/apps/google-play/app/com.tencent.now/keywords/#countries=TW'
p778
aS'https://www.appannie.com/apps/google-play/app/jp.cocone.pocketcolony/keywords/#countries=TW'
p779
aS'https://www.appannie.com/apps/google-play/app/com.icue.messenger/keywords/#countries=TW'
p780
aS'https://www.appannie.com/apps/google-play/app/com.llspace.pupu/keywords/#countries=TW'
p781
aS'https://www.appannie.com/apps/google-play/app/com.bringsgame.love/keywords/#countries=TW'
p782
aS'https://www.appannie.com/apps/google-play/app/com.styleshare.android/keywords/#countries=TW'
p783
aS'https://www.appannie.com/apps/google-play/app/cc.mmlove.city/keywords/#countries=TW'
p784
aS'https://www.appannie.com/apps/google-play/app/free.emoticons.chumelephants.tw/keywords/#countries=TW'
p785
aS'https://www.appannie.com/apps/google-play/app/com.jianshu.haruki/keywords/#countries=TW'
p786
aS'https://www.appannie.com/apps/google-play/app/com.HachigoKenjo.ThaiCurry/keywords/#countries=TW'
p787
aS'https://www.appannie.com/apps/google-play/app/com.rmsoft.follower.insight/keywords/#countries=TW'
p788
aS'https://www.appannie.com/apps/google-play/app/me2.zing.vn/keywords/#countries=TW'
p789
aS'https://www.appannie.com/apps/google-play/app/com.jessestapir.gtwf/keywords/#countries=TW'
p790
aS'https://www.appannie.com/apps/google-play/app/free.emoticons.orangeman.tw/keywords/#countries=TW'
p791
aS'https://www.appannie.com/apps/google-play/app/com.gpowers.imagesizer/keywords/#countries=TW'
p792
aS'https://www.appannie.com/apps/google-play/app/com.tencent.WBlog/keywords/#countries=TW'
p793
aS'https://www.appannie.com/apps/google-play/app/com.floaters.b4f/keywords/#countries=TW'
p794
aS'https://www.appannie.com/apps/google-play/app/air.u.live.video.chat/keywords/#countries=TW'
p795
aS'https://www.appannie.com/apps/google-play/app/com.rchat.ltgd.rchat/keywords/#countries=TW'
p796
aS'https://www.appannie.com/apps/google-play/app/com.toluna.webservice/keywords/#countries=TW'
p797
aS'https://www.appannie.com/apps/google-play/app/com.chai/keywords/#countries=TW'
p798
aS'https://www.appannie.com/apps/google-play/app/com.HachigoKenjo.BeautifulPictureHD/keywords/#countries=TW'
p799
aS'https://www.appannie.com/apps/google-play/app/com.AngleApp.HaveGoodDayMorning/keywords/#countries=TW'
p800
aS'https://www.appannie.com/apps/google-play/app/com.phonesplayer.topimages.goodmorning/keywords/#countries=TW'
p801
aS'https://www.appannie.com/apps/google-play/app/com.jham.greetings/keywords/#countries=TW'
p802
aS'https://www.appannie.com/apps/google-play/app/com.mobappcreator.app_63498_66617/keywords/#countries=TW'
p803
aS'https://www.appannie.com/apps/google-play/app/com.profile.admires_stalkers_unknown/keywords/#countries=TW'
p804
aS'https://www.appannie.com/apps/google-play/app/com.flitto.app/keywords/#countries=TW'
p805
aS'https://www.appannie.com/apps/google-play/app/appear.in.app/keywords/#countries=TW'
p806
aS'https://www.appannie.com/apps/google-play/app/com.ogodatingapps.divorceddatingsite/keywords/#countries=TW'
p807
aS'https://www.appannie.com/apps/google-play/app/com.mylikemeter.mobile/keywords/#countries=TW'
p808
aS'https://www.appannie.com/apps/google-play/app/com.leon456.chatwithlala/keywords/#countries=TW'
p809
aS'https://www.appannie.com/apps/google-play/app/com.intimegocareer/keywords/#countries=TW'
p810
aS'https://www.appannie.com/apps/google-play/app/com.hoott/keywords/#countries=TW'
p811
aS'https://www.appannie.com/apps/google-play/app/com.friendmobile.singleparty/keywords/#countries=TW'
p812
aS'https://www.appannie.com/apps/google-play/app/com.clickntap.costaintouch/keywords/#countries=TW'
p813
aS'https://www.appannie.com/apps/google-play/app/com.kakao.story/keywords/#countries=TW'
p814
aS'https://www.appannie.com/apps/google-play/app/com.bum.face.livevideo/keywords/#countries=TW'
p815
aS'https://www.appannie.com/apps/google-play/app/io.friendly/keywords/#countries=TW'
p816
aS'https://www.appannie.com/apps/google-play/app/com.younglive.livestreaming.international/keywords/#countries=TW'
p817
aS'https://www.appannie.com/apps/google-play/app/com.tnine.romanticjustforu/keywords/#countries=TW'
p818
aS'https://www.appannie.com/apps/google-play/app/com.creativetrends.simple.app/keywords/#countries=TW'
p819
aS'https://www.appannie.com/apps/google-play/app/sayatme.guide.tutorial/keywords/#countries=TW'
p820
aS'https://www.appannie.com/apps/google-play/app/net.fast.web.browser/keywords/#countries=TW'
p821
aS'https://www.appannie.com/apps/google-play/app/chat.worldmatchdate/keywords/#countries=TW'
p822
aS'https://www.appannie.com/apps/google-play/app/com.tbcitw.app.friendstracker/keywords/#countries=TW'
p823
aS'https://www.appannie.com/apps/google-play/app/com.asiandate/keywords/#countries=TW'
p824
aS'https://www.appannie.com/apps/google-play/app/com.dd.faceage/keywords/#countries=TW'
p825
aS'https://www.appannie.com/apps/google-play/app/pink.heart.love.dreams/keywords/#countries=TW'
p826
aS'https://www.appannie.com/apps/google-play/app/free.emoticons.keroyan.tw/keywords/#countries=TW'
p827
aS'https://www.appannie.com/apps/google-play/app/blyther.c4chat/keywords/#countries=TW'
p828
aS'https://www.appannie.com/apps/google-play/app/com.cootek.smartinputv5.skin.keyboard_theme_song_of_death/keywords/#countries=TW'
p829
aS'https://www.appannie.com/apps/google-play/app/com.vk.stream/keywords/#countries=TW'
p830
aS'https://www.appannie.com/apps/google-play/app/com.uxin.live/keywords/#countries=TW'
p831
aS'https://www.appannie.com/apps/google-play/app/com.ksytech.weishangshenqi/keywords/#countries=TW'
p832
aS'https://www.appannie.com/apps/google-play/app/com.fotoable.hello.chat/keywords/#countries=TW'
p833
aS'https://www.appannie.com/apps/google-play/app/com.yuandroid.touchPTT/keywords/#countries=TW'
p834
aS'https://www.appannie.com/apps/google-play/app/com.NBestApp.NGoodMorningEn11/keywords/#countries=TW'
p835
aS'https://www.appannie.com/apps/google-play/app/com.taiwanmobile.volunteers/keywords/#countries=TW'
p836
aS'https://www.appannie.com/apps/google-play/app/com.locator24.gpstracker/keywords/#countries=TW'
p837
aS'https://www.appannie.com/apps/google-play/app/com.jham.goodnight2014/keywords/#countries=TW'
p838
aS'https://www.appannie.com/apps/google-play/app/com.gpstracker.track/keywords/#countries=TW'
p839
aS'https://www.appannie.com/apps/google-play/app/american.chatmeetfriends/keywords/#countries=TW'
p840
aS'https://www.appannie.com/apps/google-play/app/socials.com.application/keywords/#countries=TW'
p841
aS'https://www.appannie.com/apps/google-play/app/com.red.wotalk/keywords/#countries=TW'
p842
aS'https://www.appannie.com/apps/google-play/app/com.rain.liteforfacebook2017/keywords/#countries=TW'
p843
aS'https://www.appannie.com/apps/google-play/app/lovequotes007.love.justforu.goodmorning/keywords/#countries=TW'
p844
aS'https://www.appannie.com/apps/google-play/app/com.justdo.instafollow/keywords/#countries=TW'
p845
aS'https://www.appannie.com/apps/google-play/app/com.mame.dianwanyouxi009/keywords/#countries=TW'
p846
aS'https://www.appannie.com/apps/google-play/app/com.JacobApp.GoodMorningGoodDay/keywords/#countries=TW'
p847
aS'https://www.appannie.com/apps/google-play/app/ninja.crush.android/keywords/#countries=TW'
p848
aS'https://www.appannie.com/apps/google-play/app/th.media.itsme/keywords/#countries=TW'
p849
aS'https://www.appannie.com/apps/google-play/app/free.emoticons.pudding.tw/keywords/#countries=TW'
p850
aS'https://www.appannie.com/apps/google-play/app/com.d8aspring.surveyon/keywords/#countries=TW'
p851
aS'https://www.appannie.com/apps/google-play/app/jp.co.fusioncom.smartalk.android/keywords/#countries=TW'
p852
aS'https://www.appannie.com/apps/google-play/app/pink.love.girl.bubbles/keywords/#countries=TW'
p853
aS'https://www.appannie.com/apps/google-play/app/com.nice.tutulive/keywords/#countries=TW'
p854
aS'https://www.appannie.com/apps/google-play/app/com.terriblystudio.machineliker/keywords/#countries=TW'
p855
aS'https://www.appannie.com/apps/google-play/app/com.dolphin.browser.zero/keywords/#countries=TW'
p856
aS'https://www.appannie.com/apps/google-play/app/air.Chat.org/keywords/#countries=TW'
p857
aS'https://www.appannie.com/apps/google-play/app/com.profile.visitors_stalkers/keywords/#countries=TW'
p858
aS'https://www.appannie.com/apps/google-play/app/org.tchat/keywords/#countries=TW'
p859
aS'https://www.appannie.com/apps/google-play/app/com.IdeaDesign.HappyBirthdayToYou/keywords/#countries=TW'
p860
aS'https://www.appannie.com/apps/google-play/app/vir56k.loversicon.core/keywords/#countries=TW'
p861
aS'https://www.appannie.com/apps/google-play/app/com.c1111.zone.servicestore/keywords/#countries=TW'
p862
aS'https://www.appannie.com/apps/google-play/app/com.quoord.tapatalkpro.activity/keywords/#countries=TW'
p863
aS'https://www.appannie.com/apps/google-play/app/com.HachigoKenjo.GoodNightLovingTrail/keywords/#countries=TW'
p864
aS'https://www.appannie.com/apps/google-play/app/com.peter.animatedlovestickers/keywords/#countries=TW'
p865
aS'https://www.appannie.com/apps/google-play/app/hfast.facebook.lite/keywords/#countries=TW'
p866
aS'https://www.appannie.com/apps/google-play/app/com.ifreetalk.ftalk/keywords/#countries=TW'
p867
aS'https://www.appannie.com/apps/google-play/app/com.dating.android/keywords/#countries=TW'
p868
aS'https://www.appannie.com/apps/google-play/app/com.dk.omega.chat/keywords/#countries=TW'
p869
aS'https://www.appannie.com/apps/google-play/app/com.emojifamily.emoji.keyboard.sticker.MiddleFingerGif/keywords/#countries=TW'
p870
aS'https://www.appannie.com/apps/google-play/app/com.KTConnect.goodnight/keywords/#countries=TW'
p871
aS'https://www.appannie.com/apps/google-play/app/free.emoticons.dokuro.tw/keywords/#countries=TW'
p872
aS'https://www.appannie.com/apps/google-play/app/com.ezmobo.audiolove/keywords/#countries=TW'
p873
aS'https://www.appannie.com/apps/google-play/app/com.wInternet_3985304/keywords/#countries=TW'
p874
aS'https://www.appannie.com/apps/google-play/app/com.kwai.mercury/keywords/#countries=TW'
p875
aS'https://www.appannie.com/apps/google-play/app/com.aiyouzhe.tieba/keywords/#countries=TW'
p876
aS'https://www.appannie.com/apps/google-play/app/com.anaface.anaface/keywords/#countries=TW'
p877
aS'https://www.appannie.com/apps/google-play/app/com.arabchat.girls.numbers/keywords/#countries=TW'
p878
aS'https://www.appannie.com/apps/google-play/app/br.com.deway.wfapp/keywords/#countries=TW'
p879
aS'https://www.appannie.com/apps/google-play/app/com.glympse.android.glympse/keywords/#countries=TW'
p880
aS'https://www.appannie.com/apps/google-play/app/com.mi.vtalk/keywords/#countries=TW'
p881
aS'https://www.appannie.com/apps/google-play/app/com.emojiplugin.coloremoji.googleemoji/keywords/#countries=TW'
p882
aS'https://www.appannie.com/apps/google-play/app/com.repost/keywords/#countries=TW'
p883
aS'https://www.appannie.com/apps/google-play/app/com.giamma.like_counter/keywords/#countries=TW'
p884
aS'https://www.appannie.com/apps/google-play/app/com.phm.joy/keywords/#countries=TW'
p885
aS'https://www.appannie.com/apps/google-play/app/mobi.mgeek.browserfaster/keywords/#countries=TW'
p886
aS'https://www.appannie.com/apps/google-play/app/com.nm.emoji.emojikeyboard/keywords/#countries=TW'
p887
aS'https://www.appannie.com/apps/google-play/app/com.novionline.subscribercounter/keywords/#countries=TW'
p888
aS'https://www.appannie.com/apps/google-play/app/com.febria.puasaramadhan/keywords/#countries=TW'
p889
aS'https://www.appannie.com/apps/google-play/app/com.panelManagement.activity/keywords/#countries=TW'
p890
aS'https://www.appannie.com/apps/google-play/app/com.sidefeed.TCLive/keywords/#countries=TW'
p891
aS'https://www.appannie.com/apps/google-play/app/com.linecorp.lineblog/keywords/#countries=TW'
p892
aS'https://www.appannie.com/apps/google-play/app/com.peter.stickers/keywords/#countries=TW'
p893
aS'https://www.appannie.com/apps/google-play/app/com.kakao.group/keywords/#countries=TW'
p894
aS'https://www.appannie.com/apps/google-play/app/com.renren.xiaonei.android/keywords/#countries=TW'
p895
aS'https://www.appannie.com/apps/google-play/app/free.emoticons.cute/keywords/#countries=TW'
p896
aS'https://www.appannie.com/apps/google-play/app/com.plus.fb/keywords/#countries=TW'
p897
aS'https://www.appannie.com/apps/google-play/app/chat.ola.vn/keywords/#countries=TW'
p898
aS'https://www.appannie.com/apps/google-play/app/com.zhiliaoapp.lively/keywords/#countries=TW'
p899
aS'https://www.appannie.com/apps/google-play/app/com.talkmate.tmr/keywords/#countries=TW'
p900
aS'https://www.appannie.com/apps/google-play/app/com.selvaraj.twoway.android/keywords/#countries=TW'
p901
aS'https://www.appannie.com/apps/google-play/app/com.ijfoto.tw.origin/keywords/#countries=TW'
p902
aS'https://www.appannie.com/apps/google-play/app/com.dhj.allstatus/keywords/#countries=TW'
p903
aS'https://www.appannie.com/apps/google-play/app/free.emoticons.oyajidog.tw/keywords/#countries=TW'
p904
aS'https://www.appannie.com/apps/google-play/app/com.art.infoapps.birthday/keywords/#countries=TW'
p905
aS'https://www.appannie.com/apps/google-play/app/com.HachigoKenjo.GmnLatin/keywords/#countries=TW'
p906
aS'https://www.appannie.com/apps/google-play/app/com.KTConnect.goodmorningen/keywords/#countries=TW'
p907
aS'https://www.appannie.com/apps/google-play/app/com.bbbler.social.meetcute/keywords/#countries=TW'
p908
aS'https://www.appannie.com/apps/google-play/app/com.justforthee.ichurch/keywords/#countries=TW'
p909
aS'https://www.appannie.com/apps/google-play/app/pro.appus.likulatorfb/keywords/#countries=TW'
p910
aS'https://www.appannie.com/apps/google-play/app/com.ionicframework.myapp883697/keywords/#countries=TW'
p911
aS'https://www.appannie.com/apps/google-play/app/chat.matchdate/keywords/#countries=TW'
p912
aS'https://www.appannie.com/apps/google-play/app/art.cute.imagine.flowers/keywords/#countries=TW'
p913
aS'https://www.appannie.com/apps/google-play/app/com.zeeshan.greetingcards/keywords/#countries=TW'
p914
aS'https://www.appannie.com/apps/google-play/app/com.ml.discju/keywords/#countries=TW'
p915
aS'https://www.appannie.com/apps/google-play/app/com.miinosoft.unfriend/keywords/#countries=TW'
p916
aS'https://www.appannie.com/apps/google-play/app/com.liquable.nemo/keywords/#countries=TW'
p917
aS'https://www.appannie.com/apps/google-play/app/com.narvii.amino.x89/keywords/#countries=TW'
p918
aS'https://www.appannie.com/apps/google-play/app/cartoon.cute.pink.funny/keywords/#countries=TW'
p919
aS'https://www.appannie.com/apps/google-play/app/com.app.university/keywords/#countries=TW'
p920
aS'https://www.appannie.com/apps/google-play/app/com.livebigg.almarapp9013sa/keywords/#countries=TW'
p921
aS'https://www.appannie.com/apps/google-play/app/com.skyforce.liteappforfacebook/keywords/#countries=TW'
p922
aS'https://www.appannie.com/apps/google-play/app/com.fm.android/keywords/#countries=TW'
p923
aS'https://www.appannie.com/apps/google-play/app/free.emoticons.hatdog.tw/keywords/#countries=TW'
p924
aS'https://www.appannie.com/apps/google-play/app/com.ismiya.isptt/keywords/#countries=TW'
p925
aS'https://www.appannie.com/apps/google-play/app/net.activetheory.paperplanes/keywords/#countries=TW'
p926
aS'https://www.appannie.com/apps/google-play/app/com.mcot.a/keywords/#countries=TW'
p927
aS'https://www.appannie.com/apps/google-play/app/sourcecor.com.temple01/keywords/#countries=TW'
p928
aS'https://www.appannie.com/apps/google-play/app/com.tenthbit.juliet/keywords/#countries=TW'
p929
aS'https://www.appannie.com/apps/google-play/app/net.couplemaker.meeting/keywords/#countries=TW'
p930
aS'https://www.appannie.com/apps/google-play/app/ru.trinitydigital.findface/keywords/#countries=TW'
p931
aS'https://www.appannie.com/apps/google-play/app/meetchat.tw/keywords/#countries=TW'
p932
aS'https://www.appannie.com/apps/google-play/app/com.kakafun.hk2hand/keywords/#countries=TW'
p933
aS'https://www.appannie.com/apps/google-play/app/com.Android.TarNumber/keywords/#countries=TW'
p934
aS'https://www.appannie.com/apps/google-play/app/com.videocam.chatroom.live.amfrog.android/keywords/#countries=TW'
p935
aS'https://www.appannie.com/apps/google-play/app/com.fuzixx.dokidokipostbox/keywords/#countries=TW'
p936
aS'https://www.appannie.com/apps/google-play/app/dli.app.wowbwow/keywords/#countries=TW'
p937
aS'https://www.appannie.com/apps/google-play/app/com.infostream.seekingarrangement/keywords/#countries=TW'
p938
aS'https://www.appannie.com/apps/google-play/app/com.lovechatbig/keywords/#countries=TW'
p939
aS'https://www.appannie.com/apps/google-play/app/com.moment.leagueoffisher/keywords/#countries=TW'
p940
aS'https://www.appannie.com/apps/google-play/app/com.hunter123321000.exchange/keywords/#countries=TW'
p941
aS'https://www.appannie.com/apps/google-play/app/com.adam4adam.radar2.ui/keywords/#countries=TW'
p942
aS'https://www.appannie.com/apps/google-play/app/com.hootsuite.droid.full/keywords/#countries=TW'
p943
aS'https://www.appannie.com/apps/google-play/app/jp.pxv.pawoo/keywords/#countries=TW'
p944
aS'https://www.appannie.com/apps/google-play/app/com.nana.updatestatuskeren/keywords/#countries=TW'
p945
aS'https://www.appannie.com/apps/google-play/app/com.ahmed.profileviewers/keywords/#countries=TW'
p946
aS'https://www.appannie.com/apps/google-play/app/com.anykey.ulala/keywords/#countries=TW'
p947
aS'https://www.appannie.com/apps/google-play/app/com.happinessJia.communityservice.gphone/keywords/#countries=TW'
p948
aS'https://www.appannie.com/apps/google-play/app/com.eico.weico/keywords/#countries=TW'
p949
aS'https://www.appannie.com/apps/google-play/app/com.tencent.qgame/keywords/#countries=TW'
p950
aS'https://www.appannie.com/apps/google-play/app/net.letscorp.girlfriendcalculator/keywords/#countries=TW'
p951
aS'https://www.appannie.com/apps/google-play/app/com.decoders.love.emoji/keywords/#countries=TW'
p952
aS'https://www.appannie.com/apps/google-play/app/com.lihkg.app/keywords/#countries=TW'
p953
aS'https://www.appannie.com/apps/google-play/app/com.waf.lovemessageforbf/keywords/#countries=TW'
p954
aS'https://www.appannie.com/apps/google-play/app/com.HachigoKenjo.AnimalPhotoGallery/keywords/#countries=TW'
p955
aS'https://www.appannie.com/apps/google-play/app/com.indeed.golinks/keywords/#countries=TW'
p956
aS'https://www.appannie.com/apps/google-play/app/com.jaineed.istickers/keywords/#countries=TW'
p957
aS'https://www.appannie.com/apps/google-play/app/global.chatdatingchat/keywords/#countries=TW'
p958
aS'https://www.appannie.com/apps/google-play/app/com.phhhoto.android/keywords/#countries=TW'
p959
aS'https://www.appannie.com/apps/google-play/app/chat.appfactory360.com.lovechat/keywords/#countries=TW'
p960
aS'https://www.appannie.com/apps/google-play/app/sg.bigo.hello/keywords/#countries=TW'
p961
aS'https://www.appannie.com/apps/google-play/app/com.socialelite.app/keywords/#countries=TW'
p962
aS'https://www.appannie.com/apps/google-play/app/com.mobilplug.mylove/keywords/#countries=TW'
p963
aS'https://www.appannie.com/apps/google-play/app/com.kimcy929.hashtags/keywords/#countries=TW'
p964
aS'https://www.appannie.com/apps/google-play/app/com.smileysapp.sharing/keywords/#countries=TW'
p965
aS'https://www.appannie.com/apps/google-play/app/com.HachigoKenjo.MissYouSoMuch_Hindi/keywords/#countries=TW'
p966
aS'https://www.appannie.com/apps/google-play/app/com.xiaprojects.she.friendslooklikeme/keywords/#countries=TW'
p967
aS'https://www.appannie.com/apps/google-play/app/com.sayurilittlelilly88.GNFlowerChinese/keywords/#countries=TW'
p968
aS'https://www.appannie.com/apps/google-play/app/com.bringsgame.stickers.animatedemoticons/keywords/#countries=TW'
p969
aS'https://www.appannie.com/apps/google-play/app/io.maper.android/keywords/#countries=TW'
p970
aS'https://www.appannie.com/apps/google-play/app/jp.co.airfront.android.a2chMate/keywords/#countries=TW'
p971
aS'https://www.appannie.com/apps/google-play/app/com.narvii.amino.x54/keywords/#countries=TW'
p972
aS'https://www.appannie.com/apps/google-play/app/com.civamapps.facelooklite/keywords/#countries=TW'
p973
aS'https://www.appannie.com/apps/google-play/app/com.emojikeyboard.cute.galaxyemoji/keywords/#countries=TW'
p974
aS'https://www.appannie.com/apps/google-play/app/com.stager.stager/keywords/#countries=TW'
p975
aS'https://www.appannie.com/apps/google-play/app/com.bsb.hike/keywords/#countries=TW'
p976
aS'https://www.appannie.com/apps/google-play/app/com.weekr.me/keywords/#countries=TW'
p977
aS'https://www.appannie.com/apps/google-play/app/com.akasanet.yogrt.android/keywords/#countries=TW'
p978
aS'https://www.appannie.com/apps/google-play/app/fyi.infonesia.mobile.android/keywords/#countries=TW'
p979
aS'https://www.appannie.com/apps/google-play/app/com.vng.live360/keywords/#countries=TW'
p980
a.